ccopy_reg
_reconstructor
p0
(ccelltissue.serial.io_property
IOTissueProperty
p1
c__builtin__
dict
p2
(dp3
I0
g0
(ccelltissue.geometry.point
Point
p4
c__builtin__
object
p5
Ntp6
Rp7
(dp8
S'_pid'
p9
I0
sbsI1
g0
(g4
g5
Ntp10
Rp11
(dp12
g9
I1
sbsI2
g0
(g4
g5
Ntp13
Rp14
(dp15
g9
I2
sbsI3
g0
(g4
g5
Ntp16
Rp17
(dp18
g9
I3
sbsI4
g0
(g4
g5
Ntp19
Rp20
(dp21
g9
I4
sbsI5
g0
(g4
g5
Ntp22
Rp23
(dp24
g9
I5
sbsI6
g0
(g4
g5
Ntp25
Rp26
(dp27
g9
I6
sbsI7
g0
(g4
g5
Ntp28
Rp29
(dp30
g9
I7
sbsI8
g0
(g4
g5
Ntp31
Rp32
(dp33
g9
I8
sbsI9
g0
(g4
g5
Ntp34
Rp35
(dp36
g9
I9
sbsI10
g0
(g4
g5
Ntp37
Rp38
(dp39
g9
I10
sbsI11
g0
(g4
g5
Ntp40
Rp41
(dp42
g9
I11
sbsI12
g0
(g4
g5
Ntp43
Rp44
(dp45
g9
I12
sbsI13
g0
(g4
g5
Ntp46
Rp47
(dp48
g9
I13
sbsI14
g0
(g4
g5
Ntp49
Rp50
(dp51
g9
I14
sbsI15
g0
(g4
g5
Ntp52
Rp53
(dp54
g9
I15
sbsI16
g0
(g4
g5
Ntp55
Rp56
(dp57
g9
I16
sbsI17
g0
(g4
g5
Ntp58
Rp59
(dp60
g9
I17
sbsI18
g0
(g4
g5
Ntp61
Rp62
(dp63
g9
I18
sbsI19
g0
(g4
g5
Ntp64
Rp65
(dp66
g9
I19
sbsI20
g0
(g4
g5
Ntp67
Rp68
(dp69
g9
I20
sbsI21
g0
(g4
g5
Ntp70
Rp71
(dp72
g9
I21
sbsI22
g0
(g4
g5
Ntp73
Rp74
(dp75
g9
I22
sbsI23
g0
(g4
g5
Ntp76
Rp77
(dp78
g9
I23
sbsI24
g0
(g4
g5
Ntp79
Rp80
(dp81
g9
I24
sbsI25
g0
(g4
g5
Ntp82
Rp83
(dp84
g9
I25
sbsI26
g0
(g4
g5
Ntp85
Rp86
(dp87
g9
I26
sbsI27
g0
(g4
g5
Ntp88
Rp89
(dp90
g9
I27
sbsI28
g0
(g4
g5
Ntp91
Rp92
(dp93
g9
I28
sbsI29
g0
(g4
g5
Ntp94
Rp95
(dp96
g9
I29
sbsI30
g0
(g4
g5
Ntp97
Rp98
(dp99
g9
I30
sbsI31
g0
(g4
g5
Ntp100
Rp101
(dp102
g9
I31
sbsI32
g0
(g4
g5
Ntp103
Rp104
(dp105
g9
I32
sbsI33
g0
(g4
g5
Ntp106
Rp107
(dp108
g9
I33
sbsI34
g0
(g4
g5
Ntp109
Rp110
(dp111
g9
I34
sbsI35
g0
(g4
g5
Ntp112
Rp113
(dp114
g9
I35
sbsI36
g0
(g4
g5
Ntp115
Rp116
(dp117
g9
I36
sbsI37
g0
(g4
g5
Ntp118
Rp119
(dp120
g9
I37
sbsI38
g0
(g4
g5
Ntp121
Rp122
(dp123
g9
I38
sbsI39
g0
(g4
g5
Ntp124
Rp125
(dp126
g9
I39
sbsI40
g0
(g4
g5
Ntp127
Rp128
(dp129
g9
I40
sbsI41
g0
(g4
g5
Ntp130
Rp131
(dp132
g9
I41
sbsI42
g0
(g4
g5
Ntp133
Rp134
(dp135
g9
I42
sbsI43
g0
(g4
g5
Ntp136
Rp137
(dp138
g9
I43
sbsI44
g0
(g4
g5
Ntp139
Rp140
(dp141
g9
I44
sbsI45
g0
(g4
g5
Ntp142
Rp143
(dp144
g9
I45
sbsI46
g0
(g4
g5
Ntp145
Rp146
(dp147
g9
I46
sbsI47
g0
(g4
g5
Ntp148
Rp149
(dp150
g9
I47
sbsI48
g0
(g4
g5
Ntp151
Rp152
(dp153
g9
I48
sbsI49
g0
(g4
g5
Ntp154
Rp155
(dp156
g9
I49
sbsI50
g0
(g4
g5
Ntp157
Rp158
(dp159
g9
I50
sbsI51
g0
(g4
g5
Ntp160
Rp161
(dp162
g9
I51
sbsI52
g0
(g4
g5
Ntp163
Rp164
(dp165
g9
I52
sbsI53
g0
(g4
g5
Ntp166
Rp167
(dp168
g9
I53
sbsI54
g0
(g4
g5
Ntp169
Rp170
(dp171
g9
I54
sbsI55
g0
(g4
g5
Ntp172
Rp173
(dp174
g9
I55
sbsI56
g0
(g4
g5
Ntp175
Rp176
(dp177
g9
I56
sbsI57
g0
(g4
g5
Ntp178
Rp179
(dp180
g9
I57
sbsI58
g0
(g4
g5
Ntp181
Rp182
(dp183
g9
I58
sbsI59
g0
(g4
g5
Ntp184
Rp185
(dp186
g9
I59
sbsI60
g0
(g4
g5
Ntp187
Rp188
(dp189
g9
I60
sbsI61
g0
(g4
g5
Ntp190
Rp191
(dp192
g9
I61
sbsI62
g0
(g4
g5
Ntp193
Rp194
(dp195
g9
I62
sbsI63
g0
(g4
g5
Ntp196
Rp197
(dp198
g9
I63
sbsI64
g0
(g4
g5
Ntp199
Rp200
(dp201
g9
I64
sbsI65
g0
(g4
g5
Ntp202
Rp203
(dp204
g9
I65
sbsI66
g0
(g4
g5
Ntp205
Rp206
(dp207
g9
I66
sbsI67
g0
(g4
g5
Ntp208
Rp209
(dp210
g9
I67
sbsI68
g0
(g4
g5
Ntp211
Rp212
(dp213
g9
I68
sbsI69
g0
(g4
g5
Ntp214
Rp215
(dp216
g9
I69
sbsI70
g0
(g4
g5
Ntp217
Rp218
(dp219
g9
I70
sbsI71
g0
(g4
g5
Ntp220
Rp221
(dp222
g9
I71
sbsI72
g0
(g4
g5
Ntp223
Rp224
(dp225
g9
I72
sbsI73
g0
(g4
g5
Ntp226
Rp227
(dp228
g9
I73
sbsI74
g0
(g4
g5
Ntp229
Rp230
(dp231
g9
I74
sbsI75
g0
(g4
g5
Ntp232
Rp233
(dp234
g9
I75
sbsI76
g0
(g4
g5
Ntp235
Rp236
(dp237
g9
I76
sbsI77
g0
(g4
g5
Ntp238
Rp239
(dp240
g9
I77
sbsI78
g0
(g4
g5
Ntp241
Rp242
(dp243
g9
I78
sbsI79
g0
(g4
g5
Ntp244
Rp245
(dp246
g9
I79
sbsI80
g0
(g4
g5
Ntp247
Rp248
(dp249
g9
I80
sbsI81
g0
(g4
g5
Ntp250
Rp251
(dp252
g9
I81
sbsI82
g0
(g4
g5
Ntp253
Rp254
(dp255
g9
I82
sbsI83
g0
(g4
g5
Ntp256
Rp257
(dp258
g9
I83
sbsI84
g0
(g4
g5
Ntp259
Rp260
(dp261
g9
I84
sbsI85
g0
(g4
g5
Ntp262
Rp263
(dp264
g9
I85
sbsI86
g0
(g4
g5
Ntp265
Rp266
(dp267
g9
I86
sbsI87
g0
(g4
g5
Ntp268
Rp269
(dp270
g9
I87
sbsI88
g0
(g4
g5
Ntp271
Rp272
(dp273
g9
I88
sbsI89
g0
(g4
g5
Ntp274
Rp275
(dp276
g9
I89
sbsI90
g0
(g4
g5
Ntp277
Rp278
(dp279
g9
I90
sbsI91
g0
(g4
g5
Ntp280
Rp281
(dp282
g9
I91
sbsI92
g0
(g4
g5
Ntp283
Rp284
(dp285
g9
I92
sbsI93
g0
(g4
g5
Ntp286
Rp287
(dp288
g9
I93
sbsI94
g0
(g4
g5
Ntp289
Rp290
(dp291
g9
I94
sbsI95
g0
(g4
g5
Ntp292
Rp293
(dp294
g9
I95
sbsI96
g0
(g4
g5
Ntp295
Rp296
(dp297
g9
I96
sbsI97
g0
(g4
g5
Ntp298
Rp299
(dp300
g9
I97
sbsI98
g0
(g4
g5
Ntp301
Rp302
(dp303
g9
I98
sbsI99
g0
(g4
g5
Ntp304
Rp305
(dp306
g9
I99
sbsI100
g0
(g4
g5
Ntp307
Rp308
(dp309
g9
I100
sbsI101
g0
(g4
g5
Ntp310
Rp311
(dp312
g9
I101
sbsI102
g0
(g4
g5
Ntp313
Rp314
(dp315
g9
I102
sbsI103
g0
(g4
g5
Ntp316
Rp317
(dp318
g9
I103
sbsI104
g0
(g4
g5
Ntp319
Rp320
(dp321
g9
I104
sbsI105
g0
(g4
g5
Ntp322
Rp323
(dp324
g9
I105
sbsI106
g0
(g4
g5
Ntp325
Rp326
(dp327
g9
I106
sbsI107
g0
(g4
g5
Ntp328
Rp329
(dp330
g9
I107
sbsI108
g0
(g4
g5
Ntp331
Rp332
(dp333
g9
I108
sbsI109
g0
(g4
g5
Ntp334
Rp335
(dp336
g9
I109
sbsI110
g0
(g4
g5
Ntp337
Rp338
(dp339
g9
I110
sbsI111
g0
(g4
g5
Ntp340
Rp341
(dp342
g9
I111
sbsI112
g0
(g4
g5
Ntp343
Rp344
(dp345
g9
I112
sbsI113
g0
(g4
g5
Ntp346
Rp347
(dp348
g9
I113
sbsI114
g0
(g4
g5
Ntp349
Rp350
(dp351
g9
I114
sbsI115
g0
(g4
g5
Ntp352
Rp353
(dp354
g9
I115
sbsI116
g0
(g4
g5
Ntp355
Rp356
(dp357
g9
I116
sbsI117
g0
(g4
g5
Ntp358
Rp359
(dp360
g9
I117
sbsI118
g0
(g4
g5
Ntp361
Rp362
(dp363
g9
I118
sbsI119
g0
(g4
g5
Ntp364
Rp365
(dp366
g9
I119
sbsI120
g0
(g4
g5
Ntp367
Rp368
(dp369
g9
I120
sbsI121
g0
(g4
g5
Ntp370
Rp371
(dp372
g9
I121
sbsI122
g0
(g4
g5
Ntp373
Rp374
(dp375
g9
I122
sbsI123
g0
(g4
g5
Ntp376
Rp377
(dp378
g9
I123
sbsI124
g0
(g4
g5
Ntp379
Rp380
(dp381
g9
I124
sbsI125
g0
(g4
g5
Ntp382
Rp383
(dp384
g9
I125
sbsI126
g0
(g4
g5
Ntp385
Rp386
(dp387
g9
I126
sbsI127
g0
(g4
g5
Ntp388
Rp389
(dp390
g9
I127
sbsI128
g0
(g4
g5
Ntp391
Rp392
(dp393
g9
I128
sbsI129
g0
(g4
g5
Ntp394
Rp395
(dp396
g9
I129
sbsI130
g0
(g4
g5
Ntp397
Rp398
(dp399
g9
I130
sbsI131
g0
(g4
g5
Ntp400
Rp401
(dp402
g9
I131
sbsI132
g0
(g4
g5
Ntp403
Rp404
(dp405
g9
I132
sbsI133
g0
(g4
g5
Ntp406
Rp407
(dp408
g9
I133
sbsI134
g0
(g4
g5
Ntp409
Rp410
(dp411
g9
I134
sbsI135
g0
(g4
g5
Ntp412
Rp413
(dp414
g9
I135
sbsI136
g0
(g4
g5
Ntp415
Rp416
(dp417
g9
I136
sbsI137
g0
(g4
g5
Ntp418
Rp419
(dp420
g9
I137
sbsI138
g0
(g4
g5
Ntp421
Rp422
(dp423
g9
I138
sbsI139
g0
(g4
g5
Ntp424
Rp425
(dp426
g9
I139
sbsI140
g0
(g4
g5
Ntp427
Rp428
(dp429
g9
I140
sbsI141
g0
(g4
g5
Ntp430
Rp431
(dp432
g9
I141
sbsI142
g0
(g4
g5
Ntp433
Rp434
(dp435
g9
I142
sbsI143
g0
(g4
g5
Ntp436
Rp437
(dp438
g9
I143
sbsI144
g0
(g4
g5
Ntp439
Rp440
(dp441
g9
I144
sbsI145
g0
(g4
g5
Ntp442
Rp443
(dp444
g9
I145
sbsI146
g0
(g4
g5
Ntp445
Rp446
(dp447
g9
I146
sbsI147
g0
(g4
g5
Ntp448
Rp449
(dp450
g9
I147
sbsI148
g0
(g4
g5
Ntp451
Rp452
(dp453
g9
I148
sbsI149
g0
(g4
g5
Ntp454
Rp455
(dp456
g9
I149
sbsI150
g0
(g4
g5
Ntp457
Rp458
(dp459
g9
I150
sbsI151
g0
(g4
g5
Ntp460
Rp461
(dp462
g9
I151
sbsI152
g0
(g4
g5
Ntp463
Rp464
(dp465
g9
I152
sbsI153
g0
(g4
g5
Ntp466
Rp467
(dp468
g9
I153
sbsI154
g0
(g4
g5
Ntp469
Rp470
(dp471
g9
I154
sbsI155
g0
(g4
g5
Ntp472
Rp473
(dp474
g9
I155
sbsI156
g0
(g4
g5
Ntp475
Rp476
(dp477
g9
I156
sbsI157
g0
(g4
g5
Ntp478
Rp479
(dp480
g9
I157
sbsI158
g0
(g4
g5
Ntp481
Rp482
(dp483
g9
I158
sbsI159
g0
(g4
g5
Ntp484
Rp485
(dp486
g9
I159
sbsI160
g0
(g4
g5
Ntp487
Rp488
(dp489
g9
I160
sbsI161
g0
(g4
g5
Ntp490
Rp491
(dp492
g9
I161
sbsI162
g0
(g4
g5
Ntp493
Rp494
(dp495
g9
I162
sbsI163
g0
(g4
g5
Ntp496
Rp497
(dp498
g9
I163
sbsI164
g0
(g4
g5
Ntp499
Rp500
(dp501
g9
I164
sbsI165
g0
(g4
g5
Ntp502
Rp503
(dp504
g9
I165
sbsI166
g0
(g4
g5
Ntp505
Rp506
(dp507
g9
I166
sbsI167
g0
(g4
g5
Ntp508
Rp509
(dp510
g9
I167
sbsI168
g0
(g4
g5
Ntp511
Rp512
(dp513
g9
I168
sbsI169
g0
(g4
g5
Ntp514
Rp515
(dp516
g9
I169
sbsI170
g0
(g4
g5
Ntp517
Rp518
(dp519
g9
I170
sbsI171
g0
(g4
g5
Ntp520
Rp521
(dp522
g9
I171
sbsI172
g0
(g4
g5
Ntp523
Rp524
(dp525
g9
I172
sbsI173
g0
(g4
g5
Ntp526
Rp527
(dp528
g9
I173
sbsI174
g0
(g4
g5
Ntp529
Rp530
(dp531
g9
I174
sbsI175
g0
(g4
g5
Ntp532
Rp533
(dp534
g9
I175
sbsI176
g0
(g4
g5
Ntp535
Rp536
(dp537
g9
I176
sbsI177
g0
(g4
g5
Ntp538
Rp539
(dp540
g9
I177
sbsI178
g0
(g4
g5
Ntp541
Rp542
(dp543
g9
I178
sbsI179
g0
(g4
g5
Ntp544
Rp545
(dp546
g9
I179
sbsI180
g0
(g4
g5
Ntp547
Rp548
(dp549
g9
I180
sbsI181
g0
(g4
g5
Ntp550
Rp551
(dp552
g9
I181
sbsI182
g0
(g4
g5
Ntp553
Rp554
(dp555
g9
I182
sbsI183
g0
(g4
g5
Ntp556
Rp557
(dp558
g9
I183
sbsI184
g0
(g4
g5
Ntp559
Rp560
(dp561
g9
I184
sbsI185
g0
(g4
g5
Ntp562
Rp563
(dp564
g9
I185
sbsI186
g0
(g4
g5
Ntp565
Rp566
(dp567
g9
I186
sbsI187
g0
(g4
g5
Ntp568
Rp569
(dp570
g9
I187
sbsI188
g0
(g4
g5
Ntp571
Rp572
(dp573
g9
I188
sbsI189
g0
(g4
g5
Ntp574
Rp575
(dp576
g9
I189
sbsI190
g0
(g4
g5
Ntp577
Rp578
(dp579
g9
I190
sbsI191
g0
(g4
g5
Ntp580
Rp581
(dp582
g9
I191
sbsI192
g0
(g4
g5
Ntp583
Rp584
(dp585
g9
I192
sbsI193
g0
(g4
g5
Ntp586
Rp587
(dp588
g9
I193
sbsI194
g0
(g4
g5
Ntp589
Rp590
(dp591
g9
I194
sbsI195
g0
(g4
g5
Ntp592
Rp593
(dp594
g9
I195
sbsI196
g0
(g4
g5
Ntp595
Rp596
(dp597
g9
I196
sbsI197
g0
(g4
g5
Ntp598
Rp599
(dp600
g9
I197
sbsI198
g0
(g4
g5
Ntp601
Rp602
(dp603
g9
I198
sbsI199
g0
(g4
g5
Ntp604
Rp605
(dp606
g9
I199
sbsI200
g0
(g4
g5
Ntp607
Rp608
(dp609
g9
I200
sbsI201
g0
(g4
g5
Ntp610
Rp611
(dp612
g9
I201
sbsI202
g0
(g4
g5
Ntp613
Rp614
(dp615
g9
I202
sbsI203
g0
(g4
g5
Ntp616
Rp617
(dp618
g9
I203
sbsI204
g0
(g4
g5
Ntp619
Rp620
(dp621
g9
I204
sbsI205
g0
(g4
g5
Ntp622
Rp623
(dp624
g9
I205
sbsI206
g0
(g4
g5
Ntp625
Rp626
(dp627
g9
I206
sbsI207
g0
(g4
g5
Ntp628
Rp629
(dp630
g9
I207
sbsI208
g0
(g4
g5
Ntp631
Rp632
(dp633
g9
I208
sbsI209
g0
(g4
g5
Ntp634
Rp635
(dp636
g9
I209
sbsI210
g0
(g4
g5
Ntp637
Rp638
(dp639
g9
I210
sbsI211
g0
(g4
g5
Ntp640
Rp641
(dp642
g9
I211
sbsI212
g0
(g4
g5
Ntp643
Rp644
(dp645
g9
I212
sbsI213
g0
(g4
g5
Ntp646
Rp647
(dp648
g9
I213
sbsI214
g0
(g4
g5
Ntp649
Rp650
(dp651
g9
I214
sbsI215
g0
(g4
g5
Ntp652
Rp653
(dp654
g9
I215
sbsI216
g0
(g4
g5
Ntp655
Rp656
(dp657
g9
I216
sbsI217
g0
(g4
g5
Ntp658
Rp659
(dp660
g9
I217
sbsI218
g0
(g4
g5
Ntp661
Rp662
(dp663
g9
I218
sbsI219
g0
(g4
g5
Ntp664
Rp665
(dp666
g9
I219
sbsI220
g0
(g4
g5
Ntp667
Rp668
(dp669
g9
I220
sbsI221
g0
(g4
g5
Ntp670
Rp671
(dp672
g9
I221
sbsI222
g0
(g4
g5
Ntp673
Rp674
(dp675
g9
I222
sbsI223
g0
(g4
g5
Ntp676
Rp677
(dp678
g9
I223
sbsI224
g0
(g4
g5
Ntp679
Rp680
(dp681
g9
I224
sbsI225
g0
(g4
g5
Ntp682
Rp683
(dp684
g9
I225
sbsI226
g0
(g4
g5
Ntp685
Rp686
(dp687
g9
I226
sbsI227
g0
(g4
g5
Ntp688
Rp689
(dp690
g9
I227
sbsI228
g0
(g4
g5
Ntp691
Rp692
(dp693
g9
I228
sbsI229
g0
(g4
g5
Ntp694
Rp695
(dp696
g9
I229
sbsI230
g0
(g4
g5
Ntp697
Rp698
(dp699
g9
I230
sbsI231
g0
(g4
g5
Ntp700
Rp701
(dp702
g9
I231
sbsI232
g0
(g4
g5
Ntp703
Rp704
(dp705
g9
I232
sbsI233
g0
(g4
g5
Ntp706
Rp707
(dp708
g9
I233
sbsI234
g0
(g4
g5
Ntp709
Rp710
(dp711
g9
I234
sbsI235
g0
(g4
g5
Ntp712
Rp713
(dp714
g9
I235
sbsI236
g0
(g4
g5
Ntp715
Rp716
(dp717
g9
I236
sbsI237
g0
(g4
g5
Ntp718
Rp719
(dp720
g9
I237
sbsI238
g0
(g4
g5
Ntp721
Rp722
(dp723
g9
I238
sbsI239
g0
(g4
g5
Ntp724
Rp725
(dp726
g9
I239
sbsI240
g0
(g4
g5
Ntp727
Rp728
(dp729
g9
I240
sbsI241
g0
(g4
g5
Ntp730
Rp731
(dp732
g9
I241
sbsI242
g0
(g4
g5
Ntp733
Rp734
(dp735
g9
I242
sbsI243
g0
(g4
g5
Ntp736
Rp737
(dp738
g9
I243
sbsI244
g0
(g4
g5
Ntp739
Rp740
(dp741
g9
I244
sbsI245
g0
(g4
g5
Ntp742
Rp743
(dp744
g9
I245
sbsI246
g0
(g4
g5
Ntp745
Rp746
(dp747
g9
I246
sbsI247
g0
(g4
g5
Ntp748
Rp749
(dp750
g9
I247
sbsI248
g0
(g4
g5
Ntp751
Rp752
(dp753
g9
I248
sbsI249
g0
(g4
g5
Ntp754
Rp755
(dp756
g9
I249
sbsI250
g0
(g4
g5
Ntp757
Rp758
(dp759
g9
I250
sbsI251
g0
(g4
g5
Ntp760
Rp761
(dp762
g9
I251
sbsI252
g0
(g4
g5
Ntp763
Rp764
(dp765
g9
I252
sbsI253
g0
(g4
g5
Ntp766
Rp767
(dp768
g9
I253
sbsI254
g0
(g4
g5
Ntp769
Rp770
(dp771
g9
I254
sbsI255
g0
(g4
g5
Ntp772
Rp773
(dp774
g9
I255
sbsI256
g0
(g4
g5
Ntp775
Rp776
(dp777
g9
I256
sbsI257
g0
(g4
g5
Ntp778
Rp779
(dp780
g9
I257
sbsI258
g0
(g4
g5
Ntp781
Rp782
(dp783
g9
I258
sbsI259
g0
(g4
g5
Ntp784
Rp785
(dp786
g9
I259
sbsI260
g0
(g4
g5
Ntp787
Rp788
(dp789
g9
I260
sbsI261
g0
(g4
g5
Ntp790
Rp791
(dp792
g9
I261
sbsI262
g0
(g4
g5
Ntp793
Rp794
(dp795
g9
I262
sbsI263
g0
(g4
g5
Ntp796
Rp797
(dp798
g9
I263
sbsI264
g0
(g4
g5
Ntp799
Rp800
(dp801
g9
I264
sbsI265
g0
(g4
g5
Ntp802
Rp803
(dp804
g9
I265
sbsI266
g0
(g4
g5
Ntp805
Rp806
(dp807
g9
I266
sbsI267
g0
(g4
g5
Ntp808
Rp809
(dp810
g9
I267
sbsI268
g0
(g4
g5
Ntp811
Rp812
(dp813
g9
I268
sbsI269
g0
(g4
g5
Ntp814
Rp815
(dp816
g9
I269
sbsI270
g0
(g4
g5
Ntp817
Rp818
(dp819
g9
I270
sbsI271
g0
(g4
g5
Ntp820
Rp821
(dp822
g9
I271
sbsI272
g0
(g4
g5
Ntp823
Rp824
(dp825
g9
I272
sbsI273
g0
(g4
g5
Ntp826
Rp827
(dp828
g9
I273
sbsI274
g0
(g4
g5
Ntp829
Rp830
(dp831
g9
I274
sbsI275
g0
(g4
g5
Ntp832
Rp833
(dp834
g9
I275
sbsI276
g0
(g4
g5
Ntp835
Rp836
(dp837
g9
I276
sbsI277
g0
(g4
g5
Ntp838
Rp839
(dp840
g9
I277
sbsI278
g0
(g4
g5
Ntp841
Rp842
(dp843
g9
I278
sbsI279
g0
(g4
g5
Ntp844
Rp845
(dp846
g9
I279
sbsI280
g0
(g4
g5
Ntp847
Rp848
(dp849
g9
I280
sbsI281
g0
(g4
g5
Ntp850
Rp851
(dp852
g9
I281
sbsI282
g0
(g4
g5
Ntp853
Rp854
(dp855
g9
I282
sbsI283
g0
(g4
g5
Ntp856
Rp857
(dp858
g9
I283
sbsI284
g0
(g4
g5
Ntp859
Rp860
(dp861
g9
I284
sbsI285
g0
(g4
g5
Ntp862
Rp863
(dp864
g9
I285
sbsI286
g0
(g4
g5
Ntp865
Rp866
(dp867
g9
I286
sbsI287
g0
(g4
g5
Ntp868
Rp869
(dp870
g9
I287
sbsI288
g0
(g4
g5
Ntp871
Rp872
(dp873
g9
I288
sbsI289
g0
(g4
g5
Ntp874
Rp875
(dp876
g9
I289
sbsI290
g0
(g4
g5
Ntp877
Rp878
(dp879
g9
I290
sbsI291
g0
(g4
g5
Ntp880
Rp881
(dp882
g9
I291
sbsI292
g0
(g4
g5
Ntp883
Rp884
(dp885
g9
I292
sbsI293
g0
(g4
g5
Ntp886
Rp887
(dp888
g9
I293
sbsI294
g0
(g4
g5
Ntp889
Rp890
(dp891
g9
I294
sbsI295
g0
(g4
g5
Ntp892
Rp893
(dp894
g9
I295
sbsI296
g0
(g4
g5
Ntp895
Rp896
(dp897
g9
I296
sbsI297
g0
(g4
g5
Ntp898
Rp899
(dp900
g9
I297
sbsI298
g0
(g4
g5
Ntp901
Rp902
(dp903
g9
I298
sbsI299
g0
(g4
g5
Ntp904
Rp905
(dp906
g9
I299
sbsI300
g0
(g4
g5
Ntp907
Rp908
(dp909
g9
I300
sbsI301
g0
(g4
g5
Ntp910
Rp911
(dp912
g9
I301
sbsI302
g0
(g4
g5
Ntp913
Rp914
(dp915
g9
I302
sbsI303
g0
(g4
g5
Ntp916
Rp917
(dp918
g9
I303
sbsI304
g0
(g4
g5
Ntp919
Rp920
(dp921
g9
I304
sbsI305
g0
(g4
g5
Ntp922
Rp923
(dp924
g9
I305
sbsI306
g0
(g4
g5
Ntp925
Rp926
(dp927
g9
I306
sbsI307
g0
(g4
g5
Ntp928
Rp929
(dp930
g9
I307
sbsI308
g0
(g4
g5
Ntp931
Rp932
(dp933
g9
I308
sbsI309
g0
(g4
g5
Ntp934
Rp935
(dp936
g9
I309
sbsI310
g0
(g4
g5
Ntp937
Rp938
(dp939
g9
I310
sbsI311
g0
(g4
g5
Ntp940
Rp941
(dp942
g9
I311
sbsI312
g0
(g4
g5
Ntp943
Rp944
(dp945
g9
I312
sbsI313
g0
(g4
g5
Ntp946
Rp947
(dp948
g9
I313
sbsI314
g0
(g4
g5
Ntp949
Rp950
(dp951
g9
I314
sbsI315
g0
(g4
g5
Ntp952
Rp953
(dp954
g9
I315
sbsI316
g0
(g4
g5
Ntp955
Rp956
(dp957
g9
I316
sbsI317
g0
(g4
g5
Ntp958
Rp959
(dp960
g9
I317
sbsI318
g0
(g4
g5
Ntp961
Rp962
(dp963
g9
I318
sbsI319
g0
(g4
g5
Ntp964
Rp965
(dp966
g9
I319
sbsI320
g0
(g4
g5
Ntp967
Rp968
(dp969
g9
I320
sbsI321
g0
(g4
g5
Ntp970
Rp971
(dp972
g9
I321
sbsI322
g0
(g4
g5
Ntp973
Rp974
(dp975
g9
I322
sbsI323
g0
(g4
g5
Ntp976
Rp977
(dp978
g9
I323
sbsI324
g0
(g4
g5
Ntp979
Rp980
(dp981
g9
I324
sbsI325
g0
(g4
g5
Ntp982
Rp983
(dp984
g9
I325
sbsI326
g0
(g4
g5
Ntp985
Rp986
(dp987
g9
I326
sbsI327
g0
(g4
g5
Ntp988
Rp989
(dp990
g9
I327
sbsI328
g0
(g4
g5
Ntp991
Rp992
(dp993
g9
I328
sbsI329
g0
(g4
g5
Ntp994
Rp995
(dp996
g9
I329
sbsI330
g0
(g4
g5
Ntp997
Rp998
(dp999
g9
I330
sbsI331
g0
(g4
g5
Ntp1000
Rp1001
(dp1002
g9
I331
sbsI332
g0
(g4
g5
Ntp1003
Rp1004
(dp1005
g9
I332
sbsI333
g0
(g4
g5
Ntp1006
Rp1007
(dp1008
g9
I333
sbsI334
g0
(g4
g5
Ntp1009
Rp1010
(dp1011
g9
I334
sbsI335
g0
(g4
g5
Ntp1012
Rp1013
(dp1014
g9
I335
sbsI336
g0
(g4
g5
Ntp1015
Rp1016
(dp1017
g9
I336
sbsI337
g0
(g4
g5
Ntp1018
Rp1019
(dp1020
g9
I337
sbsI338
g0
(g4
g5
Ntp1021
Rp1022
(dp1023
g9
I338
sbsI339
g0
(g4
g5
Ntp1024
Rp1025
(dp1026
g9
I339
sbsI340
g0
(g4
g5
Ntp1027
Rp1028
(dp1029
g9
I340
sbsI341
g0
(g4
g5
Ntp1030
Rp1031
(dp1032
g9
I341
sbsI342
g0
(g4
g5
Ntp1033
Rp1034
(dp1035
g9
I342
sbsI343
g0
(g4
g5
Ntp1036
Rp1037
(dp1038
g9
I343
sbsI344
g0
(g4
g5
Ntp1039
Rp1040
(dp1041
g9
I344
sbsI345
g0
(g4
g5
Ntp1042
Rp1043
(dp1044
g9
I345
sbsI346
g0
(g4
g5
Ntp1045
Rp1046
(dp1047
g9
I346
sbsI347
g0
(g4
g5
Ntp1048
Rp1049
(dp1050
g9
I347
sbsI348
g0
(g4
g5
Ntp1051
Rp1052
(dp1053
g9
I348
sbsI349
g0
(g4
g5
Ntp1054
Rp1055
(dp1056
g9
I349
sbsI350
g0
(g4
g5
Ntp1057
Rp1058
(dp1059
g9
I350
sbsI351
g0
(g4
g5
Ntp1060
Rp1061
(dp1062
g9
I351
sbsI352
g0
(g4
g5
Ntp1063
Rp1064
(dp1065
g9
I352
sbsI353
g0
(g4
g5
Ntp1066
Rp1067
(dp1068
g9
I353
sbsI354
g0
(g4
g5
Ntp1069
Rp1070
(dp1071
g9
I354
sbsI355
g0
(g4
g5
Ntp1072
Rp1073
(dp1074
g9
I355
sbsI356
g0
(g4
g5
Ntp1075
Rp1076
(dp1077
g9
I356
sbsI357
g0
(g4
g5
Ntp1078
Rp1079
(dp1080
g9
I357
sbsI358
g0
(g4
g5
Ntp1081
Rp1082
(dp1083
g9
I358
sbsI359
g0
(g4
g5
Ntp1084
Rp1085
(dp1086
g9
I359
sbsI360
g0
(g4
g5
Ntp1087
Rp1088
(dp1089
g9
I360
sbsI361
g0
(g4
g5
Ntp1090
Rp1091
(dp1092
g9
I361
sbsI362
g0
(g4
g5
Ntp1093
Rp1094
(dp1095
g9
I362
sbsI363
g0
(g4
g5
Ntp1096
Rp1097
(dp1098
g9
I363
sbsI364
g0
(g4
g5
Ntp1099
Rp1100
(dp1101
g9
I364
sbsI365
g0
(g4
g5
Ntp1102
Rp1103
(dp1104
g9
I365
sbsI366
g0
(g4
g5
Ntp1105
Rp1106
(dp1107
g9
I366
sbsI367
g0
(g4
g5
Ntp1108
Rp1109
(dp1110
g9
I367
sbsI368
g0
(g4
g5
Ntp1111
Rp1112
(dp1113
g9
I368
sbsI369
g0
(g4
g5
Ntp1114
Rp1115
(dp1116
g9
I369
sbsI370
g0
(g4
g5
Ntp1117
Rp1118
(dp1119
g9
I370
sbsI371
g0
(g4
g5
Ntp1120
Rp1121
(dp1122
g9
I371
sbsI372
g0
(g4
g5
Ntp1123
Rp1124
(dp1125
g9
I372
sbsI373
g0
(g4
g5
Ntp1126
Rp1127
(dp1128
g9
I373
sbsI374
g0
(g4
g5
Ntp1129
Rp1130
(dp1131
g9
I374
sbsI375
g0
(g4
g5
Ntp1132
Rp1133
(dp1134
g9
I375
sbsI376
g0
(g4
g5
Ntp1135
Rp1136
(dp1137
g9
I376
sbsI377
g0
(g4
g5
Ntp1138
Rp1139
(dp1140
g9
I377
sbsI378
g0
(g4
g5
Ntp1141
Rp1142
(dp1143
g9
I378
sbsI379
g0
(g4
g5
Ntp1144
Rp1145
(dp1146
g9
I379
sbsI380
g0
(g4
g5
Ntp1147
Rp1148
(dp1149
g9
I380
sbsI381
g0
(g4
g5
Ntp1150
Rp1151
(dp1152
g9
I381
sbsI382
g0
(g4
g5
Ntp1153
Rp1154
(dp1155
g9
I382
sbsI383
g0
(g4
g5
Ntp1156
Rp1157
(dp1158
g9
I383
sbsI384
g0
(g4
g5
Ntp1159
Rp1160
(dp1161
g9
I384
sbsI385
g0
(g4
g5
Ntp1162
Rp1163
(dp1164
g9
I385
sbsI386
g0
(g4
g5
Ntp1165
Rp1166
(dp1167
g9
I386
sbsI387
g0
(g4
g5
Ntp1168
Rp1169
(dp1170
g9
I387
sbsI388
g0
(g4
g5
Ntp1171
Rp1172
(dp1173
g9
I388
sbsI389
g0
(g4
g5
Ntp1174
Rp1175
(dp1176
g9
I389
sbsI390
g0
(g4
g5
Ntp1177
Rp1178
(dp1179
g9
I390
sbsI391
g0
(g4
g5
Ntp1180
Rp1181
(dp1182
g9
I391
sbsI392
g0
(g4
g5
Ntp1183
Rp1184
(dp1185
g9
I392
sbsI393
g0
(g4
g5
Ntp1186
Rp1187
(dp1188
g9
I393
sbsI394
g0
(g4
g5
Ntp1189
Rp1190
(dp1191
g9
I394
sbsI395
g0
(g4
g5
Ntp1192
Rp1193
(dp1194
g9
I395
sbsI396
g0
(g4
g5
Ntp1195
Rp1196
(dp1197
g9
I396
sbsI397
g0
(g4
g5
Ntp1198
Rp1199
(dp1200
g9
I397
sbsI398
g0
(g4
g5
Ntp1201
Rp1202
(dp1203
g9
I398
sbsI399
g0
(g4
g5
Ntp1204
Rp1205
(dp1206
g9
I399
sbsI400
g0
(g4
g5
Ntp1207
Rp1208
(dp1209
g9
I400
sbsI401
g0
(g4
g5
Ntp1210
Rp1211
(dp1212
g9
I401
sbsI402
g0
(g4
g5
Ntp1213
Rp1214
(dp1215
g9
I402
sbsI403
g0
(g4
g5
Ntp1216
Rp1217
(dp1218
g9
I403
sbsI404
g0
(g4
g5
Ntp1219
Rp1220
(dp1221
g9
I404
sbsI405
g0
(g4
g5
Ntp1222
Rp1223
(dp1224
g9
I405
sbsI406
g0
(g4
g5
Ntp1225
Rp1226
(dp1227
g9
I406
sbsI407
g0
(g4
g5
Ntp1228
Rp1229
(dp1230
g9
I407
sbsI408
g0
(g4
g5
Ntp1231
Rp1232
(dp1233
g9
I408
sbsI409
g0
(g4
g5
Ntp1234
Rp1235
(dp1236
g9
I409
sbsI410
g0
(g4
g5
Ntp1237
Rp1238
(dp1239
g9
I410
sbsI411
g0
(g4
g5
Ntp1240
Rp1241
(dp1242
g9
I411
sbsI412
g0
(g4
g5
Ntp1243
Rp1244
(dp1245
g9
I412
sbsI413
g0
(g4
g5
Ntp1246
Rp1247
(dp1248
g9
I413
sbsI414
g0
(g4
g5
Ntp1249
Rp1250
(dp1251
g9
I414
sbsI415
g0
(g4
g5
Ntp1252
Rp1253
(dp1254
g9
I415
sbsI416
g0
(g4
g5
Ntp1255
Rp1256
(dp1257
g9
I416
sbsI417
g0
(g4
g5
Ntp1258
Rp1259
(dp1260
g9
I417
sbsI418
g0
(g4
g5
Ntp1261
Rp1262
(dp1263
g9
I418
sbsI419
g0
(g4
g5
Ntp1264
Rp1265
(dp1266
g9
I419
sbsI420
g0
(g4
g5
Ntp1267
Rp1268
(dp1269
g9
I420
sbsI421
g0
(g4
g5
Ntp1270
Rp1271
(dp1272
g9
I421
sbsI422
g0
(g4
g5
Ntp1273
Rp1274
(dp1275
g9
I422
sbsI423
g0
(g4
g5
Ntp1276
Rp1277
(dp1278
g9
I423
sbsI424
g0
(g4
g5
Ntp1279
Rp1280
(dp1281
g9
I424
sbsI425
g0
(g4
g5
Ntp1282
Rp1283
(dp1284
g9
I425
sbsI426
g0
(g4
g5
Ntp1285
Rp1286
(dp1287
g9
I426
sbsI427
g0
(g4
g5
Ntp1288
Rp1289
(dp1290
g9
I427
sbsI428
g0
(g4
g5
Ntp1291
Rp1292
(dp1293
g9
I428
sbsI429
g0
(g4
g5
Ntp1294
Rp1295
(dp1296
g9
I429
sbsI430
g0
(g4
g5
Ntp1297
Rp1298
(dp1299
g9
I430
sbsI431
g0
(g4
g5
Ntp1300
Rp1301
(dp1302
g9
I431
sbsI432
g0
(g4
g5
Ntp1303
Rp1304
(dp1305
g9
I432
sbsI433
g0
(g4
g5
Ntp1306
Rp1307
(dp1308
g9
I433
sbsI434
g0
(g4
g5
Ntp1309
Rp1310
(dp1311
g9
I434
sbsI435
g0
(g4
g5
Ntp1312
Rp1313
(dp1314
g9
I435
sbsI436
g0
(g4
g5
Ntp1315
Rp1316
(dp1317
g9
I436
sbsI437
g0
(g4
g5
Ntp1318
Rp1319
(dp1320
g9
I437
sbsI438
g0
(g4
g5
Ntp1321
Rp1322
(dp1323
g9
I438
sbsI439
g0
(g4
g5
Ntp1324
Rp1325
(dp1326
g9
I439
sbsI440
g0
(g4
g5
Ntp1327
Rp1328
(dp1329
g9
I440
sbsI441
g0
(g4
g5
Ntp1330
Rp1331
(dp1332
g9
I441
sbsI442
g0
(g4
g5
Ntp1333
Rp1334
(dp1335
g9
I442
sbsI443
g0
(g4
g5
Ntp1336
Rp1337
(dp1338
g9
I443
sbsI444
g0
(g4
g5
Ntp1339
Rp1340
(dp1341
g9
I444
sbsI445
g0
(g4
g5
Ntp1342
Rp1343
(dp1344
g9
I445
sbsI446
g0
(g4
g5
Ntp1345
Rp1346
(dp1347
g9
I446
sbsI447
g0
(g4
g5
Ntp1348
Rp1349
(dp1350
g9
I447
sbsI448
g0
(g4
g5
Ntp1351
Rp1352
(dp1353
g9
I448
sbsI449
g0
(g4
g5
Ntp1354
Rp1355
(dp1356
g9
I449
sbsI450
g0
(g4
g5
Ntp1357
Rp1358
(dp1359
g9
I450
sbsI451
g0
(g4
g5
Ntp1360
Rp1361
(dp1362
g9
I451
sbsI452
g0
(g4
g5
Ntp1363
Rp1364
(dp1365
g9
I452
sbsI453
g0
(g4
g5
Ntp1366
Rp1367
(dp1368
g9
I453
sbsI454
g0
(g4
g5
Ntp1369
Rp1370
(dp1371
g9
I454
sbsI455
g0
(g4
g5
Ntp1372
Rp1373
(dp1374
g9
I455
sbsI456
g0
(g4
g5
Ntp1375
Rp1376
(dp1377
g9
I456
sbsI457
g0
(g4
g5
Ntp1378
Rp1379
(dp1380
g9
I457
sbsI458
g0
(g4
g5
Ntp1381
Rp1382
(dp1383
g9
I458
sbsI459
g0
(g4
g5
Ntp1384
Rp1385
(dp1386
g9
I459
sbsI460
g0
(g4
g5
Ntp1387
Rp1388
(dp1389
g9
I460
sbsI461
g0
(g4
g5
Ntp1390
Rp1391
(dp1392
g9
I461
sbsI462
g0
(g4
g5
Ntp1393
Rp1394
(dp1395
g9
I462
sbsI463
g0
(g4
g5
Ntp1396
Rp1397
(dp1398
g9
I463
sbsI464
g0
(g4
g5
Ntp1399
Rp1400
(dp1401
g9
I464
sbsI465
g0
(g4
g5
Ntp1402
Rp1403
(dp1404
g9
I465
sbsI466
g0
(g4
g5
Ntp1405
Rp1406
(dp1407
g9
I466
sbsI467
g0
(g4
g5
Ntp1408
Rp1409
(dp1410
g9
I467
sbsI468
g0
(g4
g5
Ntp1411
Rp1412
(dp1413
g9
I468
sbsI469
g0
(g4
g5
Ntp1414
Rp1415
(dp1416
g9
I469
sbsI470
g0
(g4
g5
Ntp1417
Rp1418
(dp1419
g9
I470
sbsI471
g0
(g4
g5
Ntp1420
Rp1421
(dp1422
g9
I471
sbsI472
g0
(g4
g5
Ntp1423
Rp1424
(dp1425
g9
I472
sbsI473
g0
(g4
g5
Ntp1426
Rp1427
(dp1428
g9
I473
sbsI474
g0
(g4
g5
Ntp1429
Rp1430
(dp1431
g9
I474
sbsI475
g0
(g4
g5
Ntp1432
Rp1433
(dp1434
g9
I475
sbsI476
g0
(g4
g5
Ntp1435
Rp1436
(dp1437
g9
I476
sbsI477
g0
(g4
g5
Ntp1438
Rp1439
(dp1440
g9
I477
sbsI478
g0
(g4
g5
Ntp1441
Rp1442
(dp1443
g9
I478
sbsI479
g0
(g4
g5
Ntp1444
Rp1445
(dp1446
g9
I479
sbsI480
g0
(g4
g5
Ntp1447
Rp1448
(dp1449
g9
I480
sbsI481
g0
(g4
g5
Ntp1450
Rp1451
(dp1452
g9
I481
sbsI482
g0
(g4
g5
Ntp1453
Rp1454
(dp1455
g9
I482
sbsI483
g0
(g4
g5
Ntp1456
Rp1457
(dp1458
g9
I483
sbsI484
g0
(g4
g5
Ntp1459
Rp1460
(dp1461
g9
I484
sbsI485
g0
(g4
g5
Ntp1462
Rp1463
(dp1464
g9
I485
sbsI486
g0
(g4
g5
Ntp1465
Rp1466
(dp1467
g9
I486
sbsI487
g0
(g4
g5
Ntp1468
Rp1469
(dp1470
g9
I487
sbsI488
g0
(g4
g5
Ntp1471
Rp1472
(dp1473
g9
I488
sbsI489
g0
(g4
g5
Ntp1474
Rp1475
(dp1476
g9
I489
sbsI490
g0
(g4
g5
Ntp1477
Rp1478
(dp1479
g9
I490
sbsI491
g0
(g4
g5
Ntp1480
Rp1481
(dp1482
g9
I491
sbsI492
g0
(g4
g5
Ntp1483
Rp1484
(dp1485
g9
I492
sbsI493
g0
(g4
g5
Ntp1486
Rp1487
(dp1488
g9
I493
sbsI494
g0
(g4
g5
Ntp1489
Rp1490
(dp1491
g9
I494
sbsI495
g0
(g4
g5
Ntp1492
Rp1493
(dp1494
g9
I495
sbsI496
g0
(g4
g5
Ntp1495
Rp1496
(dp1497
g9
I496
sbsI497
g0
(g4
g5
Ntp1498
Rp1499
(dp1500
g9
I497
sbsI498
g0
(g4
g5
Ntp1501
Rp1502
(dp1503
g9
I498
sbsI499
g0
(g4
g5
Ntp1504
Rp1505
(dp1506
g9
I499
sbsI500
g0
(g4
g5
Ntp1507
Rp1508
(dp1509
g9
I500
sbsI501
g0
(g4
g5
Ntp1510
Rp1511
(dp1512
g9
I501
sbsI502
g0
(g4
g5
Ntp1513
Rp1514
(dp1515
g9
I502
sbsI503
g0
(g4
g5
Ntp1516
Rp1517
(dp1518
g9
I503
sbsI504
g0
(g4
g5
Ntp1519
Rp1520
(dp1521
g9
I504
sbsI505
g0
(g4
g5
Ntp1522
Rp1523
(dp1524
g9
I505
sbsI506
g0
(g4
g5
Ntp1525
Rp1526
(dp1527
g9
I506
sbsI507
g0
(g4
g5
Ntp1528
Rp1529
(dp1530
g9
I507
sbsI508
g0
(g4
g5
Ntp1531
Rp1532
(dp1533
g9
I508
sbsI509
g0
(g4
g5
Ntp1534
Rp1535
(dp1536
g9
I509
sbsI510
g0
(g4
g5
Ntp1537
Rp1538
(dp1539
g9
I510
sbsI511
g0
(g4
g5
Ntp1540
Rp1541
(dp1542
g9
I511
sbsI512
g0
(g4
g5
Ntp1543
Rp1544
(dp1545
g9
I512
sbsI513
g0
(g4
g5
Ntp1546
Rp1547
(dp1548
g9
I513
sbsI514
g0
(g4
g5
Ntp1549
Rp1550
(dp1551
g9
I514
sbsI515
g0
(g4
g5
Ntp1552
Rp1553
(dp1554
g9
I515
sbsI516
g0
(g4
g5
Ntp1555
Rp1556
(dp1557
g9
I516
sbsI517
g0
(g4
g5
Ntp1558
Rp1559
(dp1560
g9
I517
sbsI518
g0
(g4
g5
Ntp1561
Rp1562
(dp1563
g9
I518
sbsI519
g0
(g4
g5
Ntp1564
Rp1565
(dp1566
g9
I519
sbsI520
g0
(g4
g5
Ntp1567
Rp1568
(dp1569
g9
I520
sbsI521
g0
(g4
g5
Ntp1570
Rp1571
(dp1572
g9
I521
sbsI522
g0
(g4
g5
Ntp1573
Rp1574
(dp1575
g9
I522
sbsI523
g0
(g4
g5
Ntp1576
Rp1577
(dp1578
g9
I523
sbsI524
g0
(g4
g5
Ntp1579
Rp1580
(dp1581
g9
I524
sbsI525
g0
(g4
g5
Ntp1582
Rp1583
(dp1584
g9
I525
sbsI526
g0
(g4
g5
Ntp1585
Rp1586
(dp1587
g9
I526
sbsI527
g0
(g4
g5
Ntp1588
Rp1589
(dp1590
g9
I527
sbsI528
g0
(g4
g5
Ntp1591
Rp1592
(dp1593
g9
I528
sbsI529
g0
(g4
g5
Ntp1594
Rp1595
(dp1596
g9
I529
sbsI530
g0
(g4
g5
Ntp1597
Rp1598
(dp1599
g9
I530
sbsI531
g0
(g4
g5
Ntp1600
Rp1601
(dp1602
g9
I531
sbsI532
g0
(g4
g5
Ntp1603
Rp1604
(dp1605
g9
I532
sbsI533
g0
(g4
g5
Ntp1606
Rp1607
(dp1608
g9
I533
sbsI534
g0
(g4
g5
Ntp1609
Rp1610
(dp1611
g9
I534
sbsI535
g0
(g4
g5
Ntp1612
Rp1613
(dp1614
g9
I535
sbsI536
g0
(g4
g5
Ntp1615
Rp1616
(dp1617
g9
I536
sbsI537
g0
(g4
g5
Ntp1618
Rp1619
(dp1620
g9
I537
sbsI538
g0
(g4
g5
Ntp1621
Rp1622
(dp1623
g9
I538
sbsI539
g0
(g4
g5
Ntp1624
Rp1625
(dp1626
g9
I539
sbsI540
g0
(g4
g5
Ntp1627
Rp1628
(dp1629
g9
I540
sbsI541
g0
(g4
g5
Ntp1630
Rp1631
(dp1632
g9
I541
sbsI542
g0
(g4
g5
Ntp1633
Rp1634
(dp1635
g9
I542
sbsI543
g0
(g4
g5
Ntp1636
Rp1637
(dp1638
g9
I543
sbsI544
g0
(g4
g5
Ntp1639
Rp1640
(dp1641
g9
I544
sbsI545
g0
(g4
g5
Ntp1642
Rp1643
(dp1644
g9
I545
sbsI546
g0
(g4
g5
Ntp1645
Rp1646
(dp1647
g9
I546
sbsI547
g0
(g4
g5
Ntp1648
Rp1649
(dp1650
g9
I547
sbsI548
g0
(g4
g5
Ntp1651
Rp1652
(dp1653
g9
I548
sbsI549
g0
(g4
g5
Ntp1654
Rp1655
(dp1656
g9
I549
sbsI550
g0
(g4
g5
Ntp1657
Rp1658
(dp1659
g9
I550
sbsI551
g0
(g4
g5
Ntp1660
Rp1661
(dp1662
g9
I551
sbsI552
g0
(g4
g5
Ntp1663
Rp1664
(dp1665
g9
I552
sbsI553
g0
(g4
g5
Ntp1666
Rp1667
(dp1668
g9
I553
sbsI554
g0
(g4
g5
Ntp1669
Rp1670
(dp1671
g9
I554
sbsI555
g0
(g4
g5
Ntp1672
Rp1673
(dp1674
g9
I555
sbsI556
g0
(g4
g5
Ntp1675
Rp1676
(dp1677
g9
I556
sbsI557
g0
(g4
g5
Ntp1678
Rp1679
(dp1680
g9
I557
sbsI558
g0
(g4
g5
Ntp1681
Rp1682
(dp1683
g9
I558
sbsI559
g0
(g4
g5
Ntp1684
Rp1685
(dp1686
g9
I559
sbsI560
g0
(g4
g5
Ntp1687
Rp1688
(dp1689
g9
I560
sbsI561
g0
(g4
g5
Ntp1690
Rp1691
(dp1692
g9
I561
sbsI562
g0
(g4
g5
Ntp1693
Rp1694
(dp1695
g9
I562
sbsI563
g0
(g4
g5
Ntp1696
Rp1697
(dp1698
g9
I563
sbsI564
g0
(g4
g5
Ntp1699
Rp1700
(dp1701
g9
I564
sbsI565
g0
(g4
g5
Ntp1702
Rp1703
(dp1704
g9
I565
sbsI566
g0
(g4
g5
Ntp1705
Rp1706
(dp1707
g9
I566
sbsI567
g0
(g4
g5
Ntp1708
Rp1709
(dp1710
g9
I567
sbsI568
g0
(g4
g5
Ntp1711
Rp1712
(dp1713
g9
I568
sbsI569
g0
(g4
g5
Ntp1714
Rp1715
(dp1716
g9
I569
sbsI570
g0
(g4
g5
Ntp1717
Rp1718
(dp1719
g9
I570
sbsI571
g0
(g4
g5
Ntp1720
Rp1721
(dp1722
g9
I571
sbsI572
g0
(g4
g5
Ntp1723
Rp1724
(dp1725
g9
I572
sbsI573
g0
(g4
g5
Ntp1726
Rp1727
(dp1728
g9
I573
sbsI574
g0
(g4
g5
Ntp1729
Rp1730
(dp1731
g9
I574
sbsI575
g0
(g4
g5
Ntp1732
Rp1733
(dp1734
g9
I575
sbsI576
g0
(g4
g5
Ntp1735
Rp1736
(dp1737
g9
I576
sbsI577
g0
(g4
g5
Ntp1738
Rp1739
(dp1740
g9
I577
sbsI578
g0
(g4
g5
Ntp1741
Rp1742
(dp1743
g9
I578
sbsI579
g0
(g4
g5
Ntp1744
Rp1745
(dp1746
g9
I579
sbsI580
g0
(g4
g5
Ntp1747
Rp1748
(dp1749
g9
I580
sbsI581
g0
(g4
g5
Ntp1750
Rp1751
(dp1752
g9
I581
sbsI582
g0
(g4
g5
Ntp1753
Rp1754
(dp1755
g9
I582
sbsI583
g0
(g4
g5
Ntp1756
Rp1757
(dp1758
g9
I583
sbsI584
g0
(g4
g5
Ntp1759
Rp1760
(dp1761
g9
I584
sbsI585
g0
(g4
g5
Ntp1762
Rp1763
(dp1764
g9
I585
sbsI586
g0
(g4
g5
Ntp1765
Rp1766
(dp1767
g9
I586
sbsI587
g0
(g4
g5
Ntp1768
Rp1769
(dp1770
g9
I587
sbsI588
g0
(g4
g5
Ntp1771
Rp1772
(dp1773
g9
I588
sbsI589
g0
(g4
g5
Ntp1774
Rp1775
(dp1776
g9
I589
sbsI590
g0
(g4
g5
Ntp1777
Rp1778
(dp1779
g9
I590
sbsI591
g0
(g4
g5
Ntp1780
Rp1781
(dp1782
g9
I591
sbsI592
g0
(g4
g5
Ntp1783
Rp1784
(dp1785
g9
I592
sbsI593
g0
(g4
g5
Ntp1786
Rp1787
(dp1788
g9
I593
sbsI594
g0
(g4
g5
Ntp1789
Rp1790
(dp1791
g9
I594
sbsI595
g0
(g4
g5
Ntp1792
Rp1793
(dp1794
g9
I595
sbsI596
g0
(g4
g5
Ntp1795
Rp1796
(dp1797
g9
I596
sbsI597
g0
(g4
g5
Ntp1798
Rp1799
(dp1800
g9
I597
sbsI598
g0
(g4
g5
Ntp1801
Rp1802
(dp1803
g9
I598
sbsI599
g0
(g4
g5
Ntp1804
Rp1805
(dp1806
g9
I599
sbsI600
g0
(g4
g5
Ntp1807
Rp1808
(dp1809
g9
I600
sbsI601
g0
(g4
g5
Ntp1810
Rp1811
(dp1812
g9
I601
sbsI602
g0
(g4
g5
Ntp1813
Rp1814
(dp1815
g9
I602
sbsI603
g0
(g4
g5
Ntp1816
Rp1817
(dp1818
g9
I603
sbsI604
g0
(g4
g5
Ntp1819
Rp1820
(dp1821
g9
I604
sbsI605
g0
(g4
g5
Ntp1822
Rp1823
(dp1824
g9
I605
sbsI606
g0
(g4
g5
Ntp1825
Rp1826
(dp1827
g9
I606
sbsI607
g0
(g4
g5
Ntp1828
Rp1829
(dp1830
g9
I607
sbsI608
g0
(g4
g5
Ntp1831
Rp1832
(dp1833
g9
I608
sbsI609
g0
(g4
g5
Ntp1834
Rp1835
(dp1836
g9
I609
sbsI610
g0
(g4
g5
Ntp1837
Rp1838
(dp1839
g9
I610
sbsI611
g0
(g4
g5
Ntp1840
Rp1841
(dp1842
g9
I611
sbsI612
g0
(g4
g5
Ntp1843
Rp1844
(dp1845
g9
I612
sbsI613
g0
(g4
g5
Ntp1846
Rp1847
(dp1848
g9
I613
sbsI614
g0
(g4
g5
Ntp1849
Rp1850
(dp1851
g9
I614
sbsI615
g0
(g4
g5
Ntp1852
Rp1853
(dp1854
g9
I615
sbsI616
g0
(g4
g5
Ntp1855
Rp1856
(dp1857
g9
I616
sbsI617
g0
(g4
g5
Ntp1858
Rp1859
(dp1860
g9
I617
sbsI618
g0
(g4
g5
Ntp1861
Rp1862
(dp1863
g9
I618
sbsI619
g0
(g4
g5
Ntp1864
Rp1865
(dp1866
g9
I619
sbsI620
g0
(g4
g5
Ntp1867
Rp1868
(dp1869
g9
I620
sbsI621
g0
(g4
g5
Ntp1870
Rp1871
(dp1872
g9
I621
sbsI622
g0
(g4
g5
Ntp1873
Rp1874
(dp1875
g9
I622
sbsI623
g0
(g4
g5
Ntp1876
Rp1877
(dp1878
g9
I623
sbsI624
g0
(g4
g5
Ntp1879
Rp1880
(dp1881
g9
I624
sbsI625
g0
(g4
g5
Ntp1882
Rp1883
(dp1884
g9
I625
sbsI626
g0
(g4
g5
Ntp1885
Rp1886
(dp1887
g9
I626
sbsI627
g0
(g4
g5
Ntp1888
Rp1889
(dp1890
g9
I627
sbsI628
g0
(g4
g5
Ntp1891
Rp1892
(dp1893
g9
I628
sbsI629
g0
(g4
g5
Ntp1894
Rp1895
(dp1896
g9
I629
sbsI630
g0
(g4
g5
Ntp1897
Rp1898
(dp1899
g9
I630
sbsI631
g0
(g4
g5
Ntp1900
Rp1901
(dp1902
g9
I631
sbsI632
g0
(g4
g5
Ntp1903
Rp1904
(dp1905
g9
I632
sbsI633
g0
(g4
g5
Ntp1906
Rp1907
(dp1908
g9
I633
sbsI634
g0
(g4
g5
Ntp1909
Rp1910
(dp1911
g9
I634
sbsI635
g0
(g4
g5
Ntp1912
Rp1913
(dp1914
g9
I635
sbsI636
g0
(g4
g5
Ntp1915
Rp1916
(dp1917
g9
I636
sbsI637
g0
(g4
g5
Ntp1918
Rp1919
(dp1920
g9
I637
sbsI638
g0
(g4
g5
Ntp1921
Rp1922
(dp1923
g9
I638
sbsI639
g0
(g4
g5
Ntp1924
Rp1925
(dp1926
g9
I639
sbsI640
g0
(g4
g5
Ntp1927
Rp1928
(dp1929
g9
I640
sbsI641
g0
(g4
g5
Ntp1930
Rp1931
(dp1932
g9
I641
sbsI642
g0
(g4
g5
Ntp1933
Rp1934
(dp1935
g9
I642
sbsI643
g0
(g4
g5
Ntp1936
Rp1937
(dp1938
g9
I643
sbsI644
g0
(g4
g5
Ntp1939
Rp1940
(dp1941
g9
I644
sbsI645
g0
(g4
g5
Ntp1942
Rp1943
(dp1944
g9
I645
sbsI646
g0
(g4
g5
Ntp1945
Rp1946
(dp1947
g9
I646
sbsI647
g0
(g4
g5
Ntp1948
Rp1949
(dp1950
g9
I647
sbsI648
g0
(g4
g5
Ntp1951
Rp1952
(dp1953
g9
I648
sbsI649
g0
(g4
g5
Ntp1954
Rp1955
(dp1956
g9
I649
sbsI650
g0
(g4
g5
Ntp1957
Rp1958
(dp1959
g9
I650
sbsI651
g0
(g4
g5
Ntp1960
Rp1961
(dp1962
g9
I651
sbsI652
g0
(g4
g5
Ntp1963
Rp1964
(dp1965
g9
I652
sbsI653
g0
(g4
g5
Ntp1966
Rp1967
(dp1968
g9
I653
sbsI654
g0
(g4
g5
Ntp1969
Rp1970
(dp1971
g9
I654
sbsI655
g0
(g4
g5
Ntp1972
Rp1973
(dp1974
g9
I655
sbsI656
g0
(g4
g5
Ntp1975
Rp1976
(dp1977
g9
I656
sbsI657
g0
(g4
g5
Ntp1978
Rp1979
(dp1980
g9
I657
sbsI658
g0
(g4
g5
Ntp1981
Rp1982
(dp1983
g9
I658
sbsI659
g0
(g4
g5
Ntp1984
Rp1985
(dp1986
g9
I659
sbsI660
g0
(g4
g5
Ntp1987
Rp1988
(dp1989
g9
I660
sbsI661
g0
(g4
g5
Ntp1990
Rp1991
(dp1992
g9
I661
sbsI662
g0
(g4
g5
Ntp1993
Rp1994
(dp1995
g9
I662
sbsI663
g0
(g4
g5
Ntp1996
Rp1997
(dp1998
g9
I663
sbsI664
g0
(g4
g5
Ntp1999
Rp2000
(dp2001
g9
I664
sbsI665
g0
(g4
g5
Ntp2002
Rp2003
(dp2004
g9
I665
sbsI666
g0
(g4
g5
Ntp2005
Rp2006
(dp2007
g9
I666
sbsI667
g0
(g4
g5
Ntp2008
Rp2009
(dp2010
g9
I667
sbsI668
g0
(g4
g5
Ntp2011
Rp2012
(dp2013
g9
I668
sbsI669
g0
(g4
g5
Ntp2014
Rp2015
(dp2016
g9
I669
sbsI670
g0
(g4
g5
Ntp2017
Rp2018
(dp2019
g9
I670
sbsI671
g0
(g4
g5
Ntp2020
Rp2021
(dp2022
g9
I671
sbsI672
g0
(g4
g5
Ntp2023
Rp2024
(dp2025
g9
I672
sbsI673
g0
(g4
g5
Ntp2026
Rp2027
(dp2028
g9
I673
sbsI674
g0
(g4
g5
Ntp2029
Rp2030
(dp2031
g9
I674
sbsI675
g0
(g4
g5
Ntp2032
Rp2033
(dp2034
g9
I675
sbsI676
g0
(g4
g5
Ntp2035
Rp2036
(dp2037
g9
I676
sbsI677
g0
(g4
g5
Ntp2038
Rp2039
(dp2040
g9
I677
sbsI678
g0
(g4
g5
Ntp2041
Rp2042
(dp2043
g9
I678
sbsI679
g0
(g4
g5
Ntp2044
Rp2045
(dp2046
g9
I679
sbstp2047
Rp2048
(dp2049
S'scale'
p2050
I2
sS'description'
p2051
S'describe geometry of wisps at a given scale of a tissue'
p2052
sb.