ccopy_reg
_reconstructor
p0
(ccelltissue.serial.io_property
IOAbstractProperty
p1
c__builtin__
dict
p2
(dp3
I0
(F-670.67556356617638
F-134.27250285294119
tp4
sI1
(F-613.17556356617638
F-116.77250285294119
tp5
sI2
(F-633.17556356617638
F-66.772502852941187
tp6
sI3
(F-645.67556356617638
F-61.772502852941187
tp7
sI4
(F-720.67556356617638
F-79.272502852941187
tp8
sI5
(F-720.67556356617638
F-99.272502852941187
tp9
sI6
(F-658.17556356617638
F-14.272502852941187
tp10
sI7
(F-653.17556356617638
F-4.2725028529411873
tp11
sI8
(F-598.17556356617638
F-6.7725028529411873
tp12
sI9
(F-590.67556356617638
F-54.272502852941187
tp13
sI10
(F-563.17556356617638
F-94.272502852941187
tp14
sI11
(F-595.67556356617638
F-121.77250285294119
tp15
sI12
(F-590.67556356617638
F-129.27250285294119
tp16
sI13
(F-603.17556356617638
F-164.27250285294119
tp17
sI14
(F-650.67556356617638
F-151.77250285294119
tp18
sI15
(F-595.67556356617638
F-169.27250285294119
tp19
sI16
(F-555.67556356617638
F-176.77250285294119
tp20
sI17
(F-550.67556356617638
F-146.77250285294119
tp21
sI18
(F-533.17556356617638
F-154.27250285294119
tp22
sI19
(F-533.17556356617638
F-129.27250285294119
tp23
sI20
(F-515.67556356617638
F-194.27250285294119
tp24
sI21
(F-508.17556356617638
F-174.27250285294119
tp25
sI22
(F-505.67556356617638
F-136.77250285294119
tp26
sI23
(F-490.67556356617638
F-156.77250285294119
tp27
sI24
(F-493.17556356617638
F-179.27250285294119
tp28
sI25
(F-460.67556356617638
F-196.77250285294119
tp29
sI26
(F-435.67556356617638
F-199.27250285294119
tp30
sI27
(F-435.67556356617638
F-181.77250285294119
tp31
sI28
(F-468.17556356617638
F-161.77250285294119
tp32
sI29
(F-495.67556356617638
F-211.77250285294119
tp33
sI30
(F-463.17556356617638
F-219.27250285294119
tp34
sI31
(F-533.17556356617638
F-84.272502852941187
tp35
sI32
(F-500.67556356617638
F-114.27250285294119
tp36
sI33
(F-545.67556356617638
F-39.272502852941187
tp37
sI34
(F-593.17556356617638
F0.72749714705881274
tp38
sI35
(F-550.67556356617638
F-4.2725028529411873
tp39
sI36
(F-588.17556356617638
F18.227497147058813
tp40
sI37
(F-550.67556356617638
F13.227497147058813
tp41
sI38
(F-643.17556356617638
F23.227497147058813
tp42
sI39
(F-658.17556356617638
F13.227497147058813
tp43
sI40
(F-748.17556356617638
F-14.272502852941187
tp44
sI41
(F-743.17556356617638
F15.727497147058813
tp45
sI42
(F-588.17556356617638
F55.727497147058813
tp46
sI43
(F-613.17556356617638
F73.227497147058813
tp47
sI44
(F-643.17556356617638
F60.727497147058813
tp48
sI45
(F-680.67556356617638
F75.727497147058813
tp49
sI46
(F-713.17556356617638
F65.727497147058813
tp50
sI47
(F-670.67556356617638
F85.727497147058813
tp51
sI48
(F-625.67556356617638
F108.22749714705881
tp52
sI49
(F-605.67556356617638
F88.227497147058813
tp53
sI50
(F-585.67556356617638
F128.22749714705881
tp54
sI51
(F-570.67556356617638
F110.72749714705881
tp55
sI52
(F-578.17556356617638
F100.72749714705881
tp56
sI53
(F-568.17556356617638
F63.227497147058813
tp57
sI54
(F-563.17556356617638
F83.227497147058813
tp58
sI55
(F-548.17556356617638
F53.227497147058813
tp59
sI56
(F-523.17556356617638
F85.727497147058813
tp60
sI57
(F-525.67556356617638
F100.72749714705881
tp61
sI58
(F-538.17556356617638
F100.72749714705881
tp62
sI59
(F-543.17556356617638
F125.72749714705881
tp63
sI60
(F-573.17556356617638
F140.72749714705881
tp64
sI61
(F-548.17556356617638
F148.22749714705881
tp65
sI62
(F-493.17556356617638
F128.22749714705881
tp66
sI63
(F-503.17556356617638
F143.22749714705881
tp67
sI64
(F-515.67556356617638
F143.22749714705881
tp68
sI65
(F-533.17556356617638
F158.22749714705881
tp69
sI66
(F-520.67556356617638
F158.22749714705881
tp70
sI67
(F-478.17556356617638
F160.72749714705881
tp71
sI68
(F-465.67556356617638
F160.72749714705881
tp72
sI69
(F-463.17556356617638
F153.22749714705881
tp73
sI70
(F-468.17556356617638
F140.72749714705881
tp74
sI71
(F-483.17556356617638
F128.22749714705881
tp75
sI72
(F-483.17556356617638
F178.22749714705881
tp76
sI73
(F-448.17556356617638
F193.22749714705881
tp77
sI74
(F-435.67556356617638
F188.22749714705881
tp78
sI75
(F-438.17556356617638
F178.22749714705881
tp79
sI76
(F-445.67556356617638
F160.72749714705881
tp80
sI77
(F-433.17556356617638
F175.72749714705881
tp81
sI78
(F-405.67556356617638
F203.22749714705881
tp82
sI79
(F-415.67556356617638
F208.22749714705881
tp83
sI80
(F-410.67556356617638
F185.72749714705881
tp84
sI81
(F-393.17556356617638
F193.22749714705881
tp85
sI82
(F-398.17556356617638
F213.22749714705881
tp86
sI83
(F-370.67556356617638
F200.72749714705881
tp87
sI84
(F-333.17556356617638
F225.72749714705881
tp88
sI85
(F-323.17556356617638
F215.72749714705881
tp89
sI86
(F-348.17556356617638
F205.72749714705881
tp90
sI87
(F-295.67556356617638
F215.72749714705881
tp91
sI88
(F-273.17556356617638
F218.22749714705881
tp92
sI89
(F-245.67556356617638
F223.22749714705881
tp93
sI90
(F-218.17556356617638
F228.22749714705881
tp94
sI91
(F-228.17556356617638
F243.22749714705881
tp95
sI92
(F-310.67556356617638
F233.22749714705881
tp96
sI93
(F-80.675563566176379
F248.22749714705881
tp97
sI94
(F-85.675563566176379
F238.22749714705881
tp98
sI95
(F-110.67556356617638
F233.22749714705881
tp99
sI96
(F-155.67556356617638
F230.72749714705881
tp100
sI97
(F-188.17556356617638
F230.72749714705881
tp101
sI98
(F164.32443643382362
F245.72749714705881
tp102
sI99
(F114.32443643382362
F240.72749714705881
tp103
sI100
(F56.824436433823621
F240.72749714705881
tp104
sI101
(F16.824436433823621
F238.22749714705881
tp105
sI102
(F-20.675563566176379
F235.72749714705881
tp106
sI103
(F-48.175563566176379
F235.72749714705881
tp107
sI104
(F-640.67556356617638
F128.22749714705881
tp108
sI105
(F-588.17556356617638
F155.72749714705881
tp109
sI106
(F-538.17556356617638
F170.72749714705881
tp110
sI107
(F-398.17556356617638
F225.72749714705881
tp111
sI108
(F-693.17556356617638
F105.72749714705881
tp112
sI109
(F-750.67556356617638
F83.227497147058813
tp113
sI110
(F-795.67556356617638
F15.727497147058813
tp114
sI111
(F-800.67556356617638
F-14.272502852941187
tp115
sI112
(F-748.17556356617638
F-59.272502852941187
tp116
sI113
(F-698.17556356617638
F-161.77250285294119
tp117
sI114
(F-750.67556356617638
F-139.27250285294119
tp118
sI115
(F-748.17556356617638
F-91.772502852941187
tp119
sI116
(F-798.17556356617638
F-56.772502852941187
tp120
sI117
(F-795.67556356617638
F-76.772502852941187
tp121
sI118
(F-655.67556356617638
F-191.77250285294119
tp122
sI119
(F-600.67556356617638
F-209.27250285294119
tp123
sI120
(F-405.67556356617638
F-206.77250285294119
tp124
sI121
(F-395.67556356617638
F-219.27250285294119
tp125
sI122
(F-408.17556356617638
F-236.77250285294119
tp126
sI123
(F-380.67556356617638
F-216.77250285294119
tp127
sI124
(F-355.67556356617638
F-224.27250285294119
tp128
sI125
(F-328.17556356617638
F-229.27250285294119
tp129
sI126
(F-298.17556356617638
F-246.77250285294119
tp130
sI127
(F-305.67556356617638
F-266.77250285294122
tp131
sI128
(F-270.67556356617638
F-246.77250285294119
tp132
sI129
(F-248.17556356617638
F-254.27250285294119
tp133
sI130
(F-255.67556356617638
F-274.27250285294122
tp134
sI131
(F-215.67556356617638
F-254.27250285294119
tp135
sI132
(F-163.17556356617638
F-264.27250285294122
tp136
sI133
(F-140.67556356617638
F-271.77250285294122
tp137
sI134
(F-143.17556356617638
F-284.27250285294122
tp138
sI135
(F-100.67556356617638
F-266.77250285294122
tp139
sI136
(F-28.175563566176379
F-269.27250285294122
tp140
sI137
(F49.324436433823621
F-281.77250285294122
tp141
sI138
(F84.324436433823621
F-289.27250285294122
tp142
sI139
(F-493.17556356617638
F-99.272502852941187
tp143
sI140
(F-478.17556356617638
F-106.77250285294119
tp144
sI141
(F-463.17556356617638
F-126.77250285294119
tp145
sI142
(F-435.67556356617638
F-131.77250285294119
tp146
sI143
(F-425.67556356617638
F-149.27250285294119
tp147
sI144
(F-403.17556356617638
F-156.77250285294119
tp148
sI145
(F-393.17556356617638
F-154.27250285294119
tp149
sI146
(F-380.67556356617638
F-166.77250285294119
tp150
sI147
(F-355.67556356617638
F-169.27250285294119
tp151
sI148
(F-323.17556356617638
F-179.27250285294119
tp152
sI149
(F-313.17556356617638
F-174.27250285294119
tp153
sI150
(F-275.67556356617638
F-179.27250285294119
tp154
sI151
(F-268.17556356617638
F-189.27250285294119
tp155
sI152
(F-228.17556356617638
F-186.77250285294119
tp156
sI153
(F-213.17556356617638
F-196.77250285294119
tp157
sI154
(F-180.67556356617638
F-189.27250285294119
tp158
sI155
(F-153.17556356617638
F-199.27250285294119
tp159
sI156
(F-133.17556356617638
F-194.27250285294119
tp160
sI157
(F-93.175563566176379
F-206.77250285294119
tp161
sI158
(F-83.175563566176379
F-199.27250285294119
tp162
sI159
(F-43.175563566176379
F-204.27250285294119
tp163
sI160
(F-23.175563566176379
F-214.27250285294119
tp164
sI161
(F16.824436433823621
F-204.27250285294119
tp165
sI162
(F59.324436433823621
F-216.77250285294119
tp166
sI163
(F81.824436433823621
F-211.77250285294119
tp167
sI164
(F136.82443643382362
F-221.77250285294119
tp168
sI165
(F126.82443643382362
F-281.77250285294122
tp169
sI166
(F151.82443643382362
F-216.77250285294119
tp170
sI167
(F201.82443643382362
F-219.27250285294119
tp171
sI168
(F219.32443643382362
F-229.27250285294119
tp172
sI169
(F201.82443643382362
F-286.77250285294122
tp173
sI170
(F244.32443643382362
F-224.27250285294119
tp174
sI171
(F286.82443643382362
F-231.77250285294119
tp175
sI172
(F279.32443643382362
F-289.27250285294122
tp176
sI173
(F309.32443643382362
F-221.77250285294119
tp177
sI174
(F364.32443643382362
F-234.27250285294119
tp178
sI175
(F354.32443643382362
F-294.27250285294122
tp179
sI176
(F396.82443643382362
F-226.77250285294119
tp180
sI177
(F476.82443643382362
F-239.27250285294119
tp181
sI178
(F469.32443643382362
F-296.77250285294122
tp182
sI179
(F494.32443643382362
F-226.77250285294119
tp183
sI180
(F554.32443643382362
F-231.77250285294119
tp184
sI181
(F556.82443643382362
F-299.27250285294122
tp185
sI182
(F579.32443643382362
F-221.77250285294119
tp186
sI183
(F646.82443643382362
F-229.27250285294119
tp187
sI184
(F674.32443643382362
F-239.27250285294119
tp188
sI185
(F654.32443643382362
F-301.77250285294122
tp189
sI186
(F709.32443643382362
F-231.77250285294119
tp190
sI187
(F776.82443643382362
F-239.27250285294119
tp191
sI188
(F771.82443643382362
F-306.77250285294122
tp192
sI189
(F836.82443643382362
F-231.77250285294119
tp193
sI190
(F914.32443643382362
F-241.77250285294119
tp194
sI191
(F891.82443643382362
F-306.77250285294122
tp195
sI192
(F959.44779893382361
F-236.79484035294118
tp196
sI193
(F959.47013643382365
F-314.27607785294117
tp197
sI194
(F-513.17556356617638
F-66.772502852941187
tp198
sI195
(F-525.67556356617638
F-34.272502852941187
tp199
sI196
(F-528.17556356617638
F0.72749714705881274
tp200
sI197
(F-528.17556356617638
F13.227497147058813
tp201
sI198
(F-528.17556356617638
F45.727497147058813
tp202
sI199
(F-518.17556356617638
F50.727497147058813
tp203
sI200
(F-508.17556356617638
F73.227497147058813
tp204
sI201
(F-508.17556356617638
F38.227497147058813
tp205
sI202
(F-508.17556356617638
F18.227497147058813
tp206
sI203
(F-513.17556356617638
F0.72749714705881274
tp207
sI204
(F-505.67556356617638
F-11.772502852941187
tp208
sI205
(F-500.67556356617638
F-34.272502852941187
tp209
sI206
(F-500.67556356617638
F-54.272502852941187
tp210
sI207
(F-505.67556356617638
F-61.772502852941187
tp211
sI208
(F-493.17556356617638
F48.227497147058813
tp212
sI209
(F-490.67556356617638
F83.227497147058813
tp213
sI210
(F-478.17556356617638
F103.22749714705881
tp214
sI211
(F-460.67556356617638
F105.72749714705881
tp215
sI212
(F-458.17556356617638
F115.72749714705881
tp216
sI213
(F-435.67556356617638
F123.22749714705881
tp217
sI214
(F-418.17556356617638
F140.72749714705881
tp218
sI215
(F-405.67556356617638
F138.22749714705881
tp219
sI216
(F-400.67556356617638
F143.22749714705881
tp220
sI217
(F-385.67556356617638
F143.22749714705881
tp221
sI218
(F-360.67556356617638
F153.22749714705881
tp222
sI219
(F-350.67556356617638
F150.72749714705881
tp223
sI220
(F-333.17556356617638
F155.72749714705881
tp224
sI221
(F-310.67556356617638
F163.22749714705881
tp225
sI222
(F-283.17556356617638
F163.22749714705881
tp226
sI223
(F-258.17556356617638
F170.72749714705881
tp227
sI224
(F-230.67556356617638
F168.22749714705881
tp228
sI225
(F-223.17556356617638
F175.72749714705881
tp229
sI226
(F-200.67556356617638
F180.72749714705881
tp230
sI227
(F-170.67556356617638
F180.72749714705881
tp231
sI228
(F-143.17556356617638
F183.22749714705881
tp232
sI229
(F-138.17556356617638
F188.22749714705881
tp233
sI230
(F-105.67556356617638
F180.72749714705881
tp234
sI231
(F-95.675563566176379
F188.22749714705881
tp235
sI232
(F-80.675563566176379
F183.22749714705881
tp236
sI233
(F-63.175563566176379
F185.72749714705881
tp237
sI234
(F-45.675563566176379
F180.72749714705881
tp238
sI235
(F-33.175563566176379
F188.22749714705881
tp239
sI236
(F-8.175563566176379
F188.22749714705881
tp240
sI237
(F31.824436433823621
F185.72749714705881
tp241
sI238
(F69.324436433823621
F188.22749714705881
tp242
sI239
(F76.824436433823621
F195.72749714705881
tp243
sI240
(F119.32443643382362
F188.22749714705881
tp244
sI241
(F134.32443643382362
F195.72749714705881
tp245
sI242
(F176.82443643382362
F195.72749714705881
tp246
sI243
(F211.82443643382362
F188.22749714705881
tp247
sI244
(F226.82443643382362
F193.22749714705881
tp248
sI245
(F221.82443643382362
F245.72749714705881
tp249
sI246
(F271.82443643382362
F190.72749714705881
tp250
sI247
(F264.32443643382362
F245.72749714705881
tp251
sI248
(F326.82443643382362
F190.72749714705881
tp252
sI249
(F314.32443643382362
F248.22749714705881
tp253
sI250
(F381.82443643382362
F193.22749714705881
tp254
sI251
(F394.32443643382362
F198.22749714705881
tp255
sI252
(F374.32443643382362
F248.22749714705881
tp256
sI253
(F449.32443643382362
F188.22749714705881
tp257
sI254
(F474.32443643382362
F198.22749714705881
tp258
sI255
(F456.82443643382362
F248.22749714705881
tp259
sI256
(F499.32443643382362
F190.72749714705881
tp260
sI257
(F541.82443643382362
F195.72749714705881
tp261
sI258
(F536.82443643382362
F250.72749714705881
tp262
sI259
(F576.82443643382362
F188.22749714705881
tp263
sI260
(F609.32443643382362
F193.22749714705881
tp264
sI261
(F599.32443643382362
F250.72749714705881
tp265
sI262
(F659.32443643382362
F180.72749714705881
tp266
sI263
(F686.82443643382362
F190.72749714705881
tp267
sI264
(F689.32443643382362
F248.22749714705881
tp268
sI265
(F754.32443643382362
F188.22749714705881
tp269
sI266
(F754.32443643382362
F250.72749714705881
tp270
sI267
(F834.32443643382362
F190.72749714705881
tp271
sI268
(F831.82443643382362
F250.72749714705881
tp272
sI269
(F901.82443643382362
F178.22749714705881
tp273
sI270
(F934.32443643382362
F188.22749714705881
tp274
sI271
(F936.82443643382362
F250.72749714705881
tp275
sI272
(F959.44753643382364
F250.72749714705881
tp276
sI273
(F959.41592393382348
F185.6294196470588
tp277
sI274
(F-475.67556356617638
F-84.272502852941187
tp278
sI275
(F-463.17556356617638
F-64.272502852941187
tp279
sI276
(F-465.67556356617638
F-81.772502852941187
tp280
sI277
(F-433.17556356617638
F-101.77250285294119
tp281
sI278
(F-425.67556356617638
F-79.272502852941187
tp282
sI279
(F-425.67556356617638
F-96.772502852941187
tp283
sI280
(F-393.17556356617638
F-109.27250285294119
tp284
sI281
(F-405.67556356617638
F-79.272502852941187
tp285
sI282
(F-388.17556356617638
F-86.772502852941187
tp286
sI283
(F-360.67556356617638
F-116.77250285294119
tp287
sI284
(F-355.67556356617638
F-124.27250285294119
tp288
sI285
(F-363.17556356617638
F-86.772502852941187
tp289
sI286
(F-355.67556356617638
F-94.272502852941187
tp290
sI287
(F-313.17556356617638
F-124.27250285294119
tp291
sI288
(F-325.67556356617638
F-89.272502852941187
tp292
sI289
(F-313.17556356617638
F-96.772502852941187
tp293
sI290
(F-270.67556356617638
F-124.27250285294119
tp294
sI291
(F-283.17556356617638
F-89.272502852941187
tp295
sI292
(F-268.17556356617638
F-99.272502852941187
tp296
sI293
(F-243.17556356617638
F-99.272502852941187
tp297
sI294
(F-245.67556356617638
F-126.77250285294119
tp298
sI295
(F-225.67556356617638
F-134.27250285294119
tp299
sI296
(F-215.67556356617638
F-131.77250285294119
tp300
sI297
(F-183.17556356617638
F-139.27250285294119
tp301
sI298
(F-168.17556356617638
F-131.77250285294119
tp302
sI299
(F-138.17556356617638
F-136.77250285294119
tp303
sI300
(F-130.67556356617638
F-144.27250285294119
tp304
sI301
(F-233.17556356617638
F-96.772502852941187
tp305
sI302
(F-215.67556356617638
F-104.27250285294119
tp306
sI303
(F-188.17556356617638
F-96.772502852941187
tp307
sI304
(F-165.67556356617638
F-106.77250285294119
tp308
sI305
(F-135.67556356617638
F-101.77250285294119
tp309
sI306
(F-105.67556356617638
F-109.27250285294119
tp310
sI307
(F-105.67556356617638
F-134.27250285294119
tp311
sI308
(F-75.675563566176379
F-146.77250285294119
tp312
sI309
(F-63.175563566176379
F-139.27250285294119
tp313
sI310
(F-43.175563566176379
F-141.77250285294119
tp314
sI311
(F-80.675563566176379
F-104.27250285294119
tp315
sI312
(F-65.675563566176379
F-111.77250285294119
tp316
sI313
(F-33.175563566176379
F-139.27250285294119
tp317
sI314
(F16.824436433823621
F-156.77250285294119
tp318
sI315
(F-43.175563566176379
F-109.27250285294119
tp319
sI316
(F-28.175563566176379
F-116.77250285294119
tp320
sI317
(F31.824436433823621
F-149.27250285294119
tp321
sI318
(F74.324436433823621
F-151.77250285294119
tp322
sI319
(F84.324436433823621
F-159.27250285294119
tp323
sI320
(F9.324436433823621
F-111.77250285294119
tp324
sI321
(F34.324436433823621
F-121.77250285294119
tp325
sI322
(F114.32443643382362
F-151.77250285294119
tp326
sI323
(F156.82443643382362
F-161.77250285294119
tp327
sI324
(F76.824436433823621
F-116.77250285294119
tp328
sI325
(F116.82443643382362
F-121.77250285294119
tp329
sI326
(F171.82443643382362
F-156.77250285294119
tp330
sI327
(F204.32443643382362
F-156.77250285294119
tp331
sI328
(F151.82443643382362
F-114.27250285294119
tp332
sI329
(F174.32443643382362
F-124.27250285294119
tp333
sI330
(F216.82443643382362
F-154.27250285294119
tp334
sI331
(F256.82443643382362
F-166.77250285294119
tp335
sI332
(F276.82443643382362
F-164.27250285294119
tp336
sI333
(F304.32443643382362
F-174.27250285294119
tp337
sI334
(F204.32443643382362
F-121.77250285294119
tp338
sI335
(F224.32443643382362
F-129.27250285294119
tp339
sI336
(F279.32443643382362
F-129.27250285294119
tp340
sI337
(F291.82443643382362
F-126.77250285294119
tp341
sI338
(F326.82443643382362
F-136.77250285294119
tp342
sI339
(F324.32443643382362
F-164.27250285294119
tp343
sI340
(F381.82443643382362
F-166.77250285294119
tp344
sI341
(F401.82443643382362
F-176.77250285294119
tp345
sI342
(F386.82443643382362
F-131.77250285294119
tp346
sI343
(F444.32443643382362
F-166.77250285294119
tp347
sI344
(F491.82443643382362
F-179.27250285294119
tp348
sI345
(F444.32443643382362
F-136.77250285294119
tp349
sI346
(F494.32443643382362
F-129.27250285294119
tp350
sI347
(F519.32443643382362
F-139.27250285294119
tp351
sI348
(F521.82443643382362
F-166.77250285294119
tp352
sI349
(F579.32443643382362
F-174.27250285294119
tp353
sI350
(F596.82443643382362
F-166.77250285294119
tp354
sI351
(F646.82443643382362
F-169.27250285294119
tp355
sI352
(F571.82443643382362
F-129.27250285294119
tp356
sI353
(F596.82443643382362
F-136.77250285294119
tp357
sI354
(F661.82443643382362
F-166.77250285294119
tp358
sI355
(F729.32443643382362
F-179.27250285294119
tp359
sI356
(F644.32443643382362
F-131.77250285294119
tp360
sI357
(F674.32443643382362
F-141.77250285294119
tp361
sI358
(F779.32443643382362
F-174.27250285294119
tp362
sI359
(F849.32443643382362
F-179.27250285294119
tp363
sI360
(F761.82443643382362
F-139.27250285294119
tp364
sI361
(F781.82443643382362
F-146.77250285294119
tp365
sI362
(F901.82443643382362
F-174.27250285294119
tp366
sI363
(F959.40229893382343
F-181.72752785294119
tp367
sI364
(F884.32443643382362
F-139.27250285294119
tp368
sI365
(F919.32443643382362
F-149.27250285294119
tp369
sI366
(F959.37913643382353
F-146.56359035294119
tp370
sI367
(F-480.67556356617638
F53.227497147058813
tp371
sI368
(F-480.67556356617638
F65.727497147058813
tp372
sI369
(F-455.67556356617638
F78.227497147058813
tp373
sI370
(F-428.17556356617638
F90.727497147058813
tp374
sI371
(F-425.67556356617638
F100.72749714705881
tp375
sI372
(F-398.17556356617638
F108.22749714705881
tp376
sI373
(F-388.17556356617638
F108.22749714705881
tp377
sI374
(F-378.17556356617638
F118.22749714705881
tp378
sI375
(F-468.17556356617638
F53.227497147058813
tp379
sI376
(F-453.17556356617638
F65.727497147058813
tp380
sI377
(F-445.67556356617638
F65.727497147058813
tp381
sI378
(F-423.17556356617638
F78.227497147058813
tp382
sI379
(F-415.67556356617638
F78.227497147058813
tp383
sI380
(F-380.67556356617638
F90.727497147058813
tp384
sI381
(F-348.17556356617638
F120.72749714705881
tp385
sI382
(F-338.17556356617638
F120.72749714705881
tp386
sI383
(F-323.17556356617638
F130.72749714705881
tp387
sI384
(F-283.17556356617638
F130.72749714705881
tp388
sI385
(F-273.17556356617638
F135.72749714705881
tp389
sI386
(F-373.17556356617638
F88.227497147058813
tp390
sI387
(F-333.17556356617638
F100.72749714705881
tp391
sI388
(F-318.17556356617638
F98.227497147058813
tp392
sI389
(F-278.17556356617638
F108.22749714705881
tp393
sI390
(F-230.67556356617638
F135.72749714705881
tp394
sI391
(F-223.17556356617638
F140.72749714705881
tp395
sI392
(F-195.67556356617638
F138.22749714705881
tp396
sI393
(F-190.67556356617638
F143.22749714705881
tp397
sI394
(F-165.67556356617638
F143.22749714705881
tp398
sI395
(F-160.67556356617638
F148.22749714705881
tp399
sI396
(F-133.17556356617638
F150.72749714705881
tp400
sI397
(F-125.67556356617638
F148.22749714705881
tp401
sI398
(F-100.67556356617638
F153.22749714705881
tp402
sI399
(F-263.17556356617638
F103.22749714705881
tp403
sI400
(F-225.67556356617638
F113.22749714705881
tp404
sI401
(F-205.67556356617638
F110.72749714705881
tp405
sI402
(F-188.17556356617638
F115.72749714705881
tp406
sI403
(F-158.17556356617638
F120.72749714705881
tp407
sI404
(F-130.67556356617638
F115.72749714705881
tp408
sI405
(F-120.67556356617638
F120.72749714705881
tp409
sI406
(F-90.675563566176379
F125.72749714705881
tp410
sI407
(F-93.175563566176379
F148.22749714705881
tp411
sI408
(F-70.675563566176379
F148.22749714705881
tp412
sI409
(F-53.175563566176379
F145.72749714705881
tp413
sI410
(F-40.675563566176379
F150.72749714705881
tp414
sI411
(F-30.675563566176379
F145.72749714705881
tp415
sI412
(F1.824436433823621
F145.72749714705881
tp416
sI413
(F41.824436433823621
F150.72749714705881
tp417
sI414
(F81.824436433823621
F150.72749714705881
tp418
sI415
(F-50.675563566176379
F118.22749714705881
tp419
sI416
(F-23.175563566176379
F118.22749714705881
tp420
sI417
(F6.824436433823621
F118.22749714705881
tp421
sI418
(F46.824436433823621
F125.72749714705881
tp422
sI419
(F91.824436433823621
F148.22749714705881
tp423
sI420
(F124.32443643382362
F158.22749714705881
tp424
sI421
(F134.32443643382362
F153.22749714705881
tp425
sI422
(F186.82443643382362
F150.72749714705881
tp426
sI423
(F214.32443643382362
F158.22749714705881
tp427
sI424
(F81.824436433823621
F118.22749714705881
tp428
sI425
(F96.824436433823621
F123.22749714705881
tp429
sI426
(F136.82443643382362
F125.72749714705881
tp430
sI427
(F186.82443643382362
F120.72749714705881
tp431
sI428
(F226.82443643382362
F155.72749714705881
tp432
sI429
(F276.82443643382362
F155.72749714705881
tp433
sI430
(F234.32443643382362
F120.72749714705881
tp434
sI431
(F329.32443643382362
F145.72749714705881
tp435
sI432
(F339.32443643382362
F150.72749714705881
tp436
sI433
(F284.32443643382362
F118.22749714705881
tp437
sI434
(F291.82443643382362
F113.22749714705881
tp438
sI435
(F341.82443643382362
F118.22749714705881
tp439
sI436
(F391.82443643382362
F150.72749714705881
tp440
sI437
(F406.82443643382362
F145.72749714705881
tp441
sI438
(F454.32443643382362
F155.72749714705881
tp442
sI439
(F469.32443643382362
F150.72749714705881
tp443
sI440
(F504.32443643382362
F153.22749714705881
tp444
sI441
(F391.82443643382362
F113.22749714705881
tp445
sI442
(F411.82443643382362
F120.72749714705881
tp446
sI443
(F469.32443643382362
F123.22749714705881
tp447
sI444
(F544.32443643382362
F143.22749714705881
tp448
sI445
(F574.32443643382362
F150.72749714705881
tp449
sI446
(F541.82443643382362
F115.72749714705881
tp450
sI447
(F614.32443643382362
F145.72749714705881
tp451
sI448
(F659.32443643382362
F153.22749714705881
tp452
sI449
(F551.82443643382362
F113.22749714705881
tp453
sI450
(F621.82443643382362
F115.72749714705881
tp454
sI451
(F681.82443643382362
F148.22749714705881
tp455
sI452
(F756.82443643382362
F153.22749714705881
tp456
sI453
(F679.32443643382362
F110.72749714705881
tp457
sI454
(F689.32443643382362
F115.72749714705881
tp458
sI455
(F849.32443643382362
F140.72749714705881
tp459
sI456
(F899.32443643382362
F150.72749714705881
tp460
sI457
(F844.32443643382362
F108.22749714705881
tp461
sI458
(F851.82443643382362
F113.22749714705881
tp462
sI459
(F929.32443643382362
F143.22749714705881
tp463
sI460
(F959.3913114338236
F148.27596589705882
tp464
sI461
(F931.82443643382362
F110.72749714705881
tp465
sI462
(F959.38759893382371
F105.65305089705882
tp466
sI463
(F-490.67556356617638
F-31.772502852941187
tp467
sI464
(F-458.17556356617638
F-49.272502852941187
tp468
sI465
(F-443.17556356617638
F-49.272502852941187
tp469
sI466
(F-403.17556356617638
F-59.272502852941187
tp470
sI467
(F-395.67556356617638
F-56.772502852941187
tp471
sI468
(F-358.17556356617638
F-66.772502852941187
tp472
sI469
(F-338.17556356617638
F-64.272502852941187
tp473
sI470
(F-323.17556356617638
F-66.772502852941187
tp474
sI471
(F-493.17556356617638
F-6.7725028529411873
tp475
sI472
(F-490.67556356617638
F-14.272502852941187
tp476
sI473
(F-495.67556356617638
F18.227497147058813
tp477
sI474
(F-450.67556356617638
F-19.272502852941187
tp478
sI475
(F-440.67556356617638
F-34.272502852941187
tp479
sI476
(F-393.17556356617638
F-31.772502852941187
tp480
sI477
(F-420.67556356617638
F-9.2725028529411873
tp481
sI478
(F-393.17556356617638
F-11.772502852941187
tp482
sI479
(F-280.67556356617638
F-71.772502852941187
tp483
sI480
(F-335.67556356617638
F-39.272502852941187
tp484
sI481
(F-368.17556356617638
F-9.2725028529411873
tp485
sI482
(F-333.17556356617638
F-14.272502852941187
tp486
sI483
(F-268.17556356617638
F-64.272502852941187
tp487
sI484
(F-235.67556356617638
F-71.772502852941187
tp488
sI485
(F-203.17556356617638
F-69.272502852941187
tp489
sI486
(F-188.17556356617638
F-79.272502852941187
tp490
sI487
(F-268.17556356617638
F-41.772502852941187
tp491
sI488
(F-285.67556356617638
F-11.772502852941187
tp492
sI489
(F-255.67556356617638
F-14.272502852941187
tp493
sI490
(F-255.67556356617638
F-36.772502852941187
tp494
sI491
(F-133.17556356617638
F-76.772502852941187
tp495
sI492
(F-203.17556356617638
F-44.272502852941187
tp496
sI493
(F-125.67556356617638
F-74.272502852941187
tp497
sI494
(F-80.675563566176379
F-79.272502852941187
tp498
sI495
(F-180.67556356617638
F-41.772502852941187
tp499
sI496
(F-125.67556356617638
F-49.272502852941187
tp500
sI497
(F-188.17556356617638
F-11.772502852941187
tp501
sI498
(F-178.17556356617638
F-16.772502852941187
tp502
sI499
(F-58.175563566176379
F-76.772502852941187
tp503
sI500
(F-33.175563566176379
F-84.272502852941187
tp504
sI501
(F-15.675563566176379
F-81.772502852941187
tp505
sI502
(F11.824436433823621
F-91.772502852941187
tp506
sI503
(F-115.67556356617638
F-46.772502852941187
tp507
sI504
(F-53.175563566176379
F-51.772502852941187
tp508
sI505
(F-10.675563566176379
F-56.772502852941187
tp509
sI506
(F-120.67556356617638
F-19.272502852941187
tp510
sI507
(F79.324436433823621
F-89.272502852941187
tp511
sI508
(F-98.175563566176379
F-16.772502852941187
tp512
sI509
(F-50.675563566176379
F-24.272502852941187
tp513
sI510
(F14.324436433823621
F-51.772502852941187
tp514
sI511
(F19.324436433823621
F-24.272502852941187
tp515
sI512
(F11.824436433823621
F-19.272502852941187
tp516
sI513
(F89.324436433823621
F-59.272502852941187
tp517
sI514
(F91.824436433823621
F-81.772502852941187
tp518
sI515
(F151.82443643382362
F-91.772502852941187
tp519
sI516
(F99.324436433823621
F-26.772502852941187
tp520
sI517
(F106.82443643382362
F-56.772502852941187
tp521
sI518
(F179.32443643382362
F-86.772502852941187
tp522
sI519
(F211.82443643382362
F-94.272502852941187
tp523
sI520
(F184.32443643382362
F-61.772502852941187
tp524
sI521
(F124.32443643382362
F-24.272502852941187
tp525
sI522
(F189.32443643382362
F-34.272502852941187
tp526
sI523
(F291.82443643382362
F-96.772502852941187
tp527
sI524
(F294.32443643382362
F-66.772502852941187
tp528
sI525
(F301.82443643382362
F-74.272502852941187
tp529
sI526
(F286.82443643382362
F-31.772502852941187
tp530
sI527
(F301.82443643382362
F-39.272502852941187
tp531
sI528
(F386.82443643382362
F-104.27250285294119
tp532
sI529
(F449.32443643382362
F-101.77250285294119
tp533
sI530
(F494.32443643382362
F-106.77250285294119
tp534
sI531
(F439.32443643382362
F-74.272502852941187
tp535
sI532
(F451.82443643382362
F-79.272502852941187
tp536
sI533
(F439.32443643382362
F-41.772502852941187
tp537
sI534
(F571.82443643382362
F-104.27250285294119
tp538
sI535
(F614.32443643382362
F-74.272502852941187
tp539
sI536
(F604.32443643382362
F-99.272502852941187
tp540
sI537
(F454.32443643382362
F-39.272502852941187
tp541
sI538
(F596.82443643382362
F-41.772502852941187
tp542
sI539
(F616.82443643382362
F-49.272502852941187
tp543
sI540
(F656.82443643382362
F-106.77250285294119
tp544
sI541
(F774.32443643382362
F-111.77250285294119
tp545
sI542
(F834.32443643382362
F-104.27250285294119
tp546
sI543
(F891.82443643382362
F-114.27250285294119
tp547
sI544
(F834.32443643382362
F-81.772502852941187
tp548
sI545
(F846.82443643382362
F-84.272502852941187
tp549
sI546
(F774.32443643382362
F-41.772502852941187
tp550
sI547
(F849.32443643382362
F-54.272502852941187
tp551
sI548
(F959.36526143382366
F-111.67491535294118
tp552
sI549
(F959.36526143382343
F-86.549715352941206
tp553
sI550
(F959.36464893382367
F-51.578077852941178
tp554
sI551
(F-488.17556356617638
F20.727497147058813
tp555
sI552
(F-465.67556356617638
F45.727497147058813
tp556
sI553
(F-478.17556356617638
F-1.7725028529411873
tp557
sI554
(F-480.67556356617638
F15.727497147058813
tp558
sI555
(F-438.17556356617638
F8.2274971470588127
tp559
sI556
(F-418.17556356617638
F5.7274971470588127
tp560
sI557
(F-453.17556356617638
F28.227497147058813
tp561
sI558
(F-455.67556356617638
F43.227497147058813
tp562
sI559
(F-438.17556356617638
F25.727497147058813
tp563
sI560
(F-443.17556356617638
F53.227497147058813
tp564
sI561
(F-418.17556356617638
F60.727497147058813
tp565
sI562
(F-378.17556356617638
F70.727497147058813
tp566
sI563
(F-373.17556356617638
F75.727497147058813
tp567
sI564
(F-335.67556356617638
F75.727497147058813
tp568
sI565
(F-318.17556356617638
F83.227497147058813
tp569
sI566
(F-415.67556356617638
F35.727497147058813
tp570
sI567
(F-413.17556356617638
F10.727497147058813
tp571
sI568
(F-408.17556356617638
F18.227497147058813
tp572
sI569
(F-408.17556356617638
F25.727497147058813
tp573
sI570
(F-410.67556356617638
F33.227497147058813
tp574
sI571
(F-375.67556356617638
F48.227497147058813
tp575
sI572
(F-328.17556356617638
F38.227497147058813
tp576
sI573
(F-328.17556356617638
F48.227497147058813
tp577
sI574
(F-338.17556356617638
F53.227497147058813
tp578
sI575
(F-365.67556356617638
F20.727497147058813
tp579
sI576
(F-323.17556356617638
F25.727497147058813
tp580
sI577
(F-323.17556356617638
F33.227497147058813
tp581
sI578
(F-368.17556356617638
F8.2274971470588127
tp582
sI579
(F-363.17556356617638
F10.727497147058813
tp583
sI580
(F-288.17556356617638
F10.727497147058813
tp584
sI581
(F-283.17556356617638
F5.7274971470588127
tp585
sI582
(F-283.17556356617638
F25.727497147058813
tp586
sI583
(F-275.67556356617638
F78.227497147058813
tp587
sI584
(F-260.67556356617638
F85.727497147058813
tp588
sI585
(F-203.17556356617638
F88.227497147058813
tp589
sI586
(F-265.67556356617638
F55.727497147058813
tp590
sI587
(F-183.17556356617638
F8.2274971470588127
tp591
sI588
(F-240.67556356617638
F30.727497147058813
tp592
sI589
(F-188.17556356617638
F30.727497147058813
tp593
sI590
(F-178.17556356617638
F25.727497147058813
tp594
sI591
(F-240.67556356617638
F45.727497147058813
tp595
sI592
(F-243.17556356617638
F55.727497147058813
tp596
sI593
(F-130.67556356617638
F95.727497147058813
tp597
sI594
(F-195.67556356617638
F68.227497147058813
tp598
sI595
(F-183.17556356617638
F55.727497147058813
tp599
sI596
(F-175.67556356617638
F43.227497147058813
tp600
sI597
(F-78.175563566176379
F85.727497147058813
tp601
sI598
(F-50.675563566176379
F90.727497147058813
tp602
sI599
(F-10.675563566176379
F85.727497147058813
tp603
sI600
(F9.324436433823621
F93.227497147058813
tp604
sI601
(F-93.175563566176379
F65.727497147058813
tp605
sI602
(F-75.675563566176379
F70.727497147058813
tp606
sI603
(F-95.675563566176379
F38.227497147058813
tp607
sI604
(F-98.175563566176379
F23.227497147058813
tp608
sI605
(F-88.175563566176379
F28.227497147058813
tp609
sI606
(F-100.67556356617638
F3.2274971470588127
tp610
sI607
(F-95.675563566176379
F5.7274971470588127
tp611
sI608
(F81.824436433823621
F95.727497147058813
tp612
sI609
(F151.82443643382362
F88.227497147058813
tp613
sI610
(F189.32443643382362
F90.727497147058813
tp614
sI611
(F271.82443643382362
F83.227497147058813
tp615
sI612
(F291.82443643382362
F90.727497147058813
tp616
sI613
(F386.82443643382362
F90.727497147058813
tp617
sI614
(F486.82443643382362
F80.727497147058813
tp618
sI615
(F544.32443643382362
F83.227497147058813
tp619
sI616
(F681.82443643382362
F78.227497147058813
tp620
sI617
(F746.82443643382362
F73.227497147058813
tp621
sI618
(F846.82443643382362
F78.227497147058813
tp622
sI619
(F959.3625739338238
F70.751185897058818
tp623
sI620
(F-5.675563566176379
F65.727497147058813
tp624
sI621
(F16.824436433823621
F60.727497147058813
tp625
sI622
(F24.324436433823621
F40.727497147058813
tp626
sI623
(F11.824436433823621
F33.227497147058813
tp627
sI624
(F14.324436433823621
F28.227497147058813
tp628
sI625
(F21.824436433823621
F23.227497147058813
tp629
sI626
(F14.324436433823621
F3.2274971470588127
tp630
sI627
(F134.32443643382362
F63.227497147058813
tp631
sI628
(F151.82443643382362
F70.727497147058813
tp632
sI629
(F131.82443643382362
F38.227497147058813
tp633
sI630
(F136.82443643382362
F23.227497147058813
tp634
sI631
(F129.32443643382362
F18.227497147058813
tp635
sI632
(F129.32443643382362
F-1.7725028529411873
tp636
sI633
(F274.32443643382362
F63.227497147058813
tp637
sI634
(F291.82443643382362
F55.727497147058813
tp638
sI635
(F301.82443643382362
F33.227497147058813
tp639
sI636
(F294.32443643382362
F15.727497147058813
tp640
sI637
(F289.32443643382362
F-6.7725028529411873
tp641
sI638
(F464.32443643382362
F55.727497147058813
tp642
sI639
(F489.32443643382362
F63.227497147058813
tp643
sI640
(F454.32443643382362
F25.727497147058813
tp644
sI641
(F451.82443643382362
F8.2274971470588127
tp645
sI642
(F469.32443643382362
F13.227497147058813
tp646
sI643
(F454.32443643382362
F-14.272502852941187
tp647
sI644
(F616.82443643382362
F53.227497147058813
tp648
sI645
(F746.82443643382362
F53.227497147058813
tp649
sI646
(F616.82443643382362
F23.227497147058813
tp650
sI647
(F609.32443643382362
F5.7274971470588127
tp651
sI648
(F624.32443643382362
F10.727497147058813
tp652
sI649
(F624.32443643382362
F20.727497147058813
tp653
sI650
(F591.82443643382362
F-19.272502852941187
tp654
sI651
(F609.32443643382362
F-14.272502852941187
tp655
sI652
(F776.82443643382362
F20.727497147058813
tp656
sI653
(F789.32443643382362
F25.727497147058813
tp657
sI654
(F771.82443643382362
F48.227497147058813
tp658
sI655
(F779.32443643382362
F3.2274971470588127
tp659
sI656
(F769.32443643382362
F-19.272502852941187
tp660
sI657
(F784.32443643382362
F-14.272502852941187
tp661
sI658
(F784.32443643382362
F-1.7725028529411873
tp662
sI659
(F959.35644893382346
F45.728683397058816
tp663
sI660
(F959.34453643382358
F15.806532147058817
tp664
sI661
(F959.33641143382351
F-1.7691678529411945
tp665
sI662
(F959.34927393382372
F-26.564487852941198
tp666
sI663
(F1017.1338614338235
F185.53134214705881
tp667
sI664
(F1017.1830864338235
F148.32443464705881
tp668
sI665
(F1017.1905114338235
F105.57860464705882
tp669
sI666
(F1017.2405614338236
F70.774874647058823
tp670
sI667
(F1017.2528114338236
F45.72986964705882
tp671
sI668
(F1017.2766364338236
F15.885567147058822
tp672
sI669
(F1017.2928864338237
F-1.7658328529412017
tp673
sI670
(F1017.2671614338237
F-26.356472852941209
tp674
sI671
(F1017.2364114338236
F-51.383652852941168
tp675
sI672
(F1017.2351864338236
F-86.326927852941225
tp676
sI673
(F1017.2351864338236
F-111.57732785294118
tp677
sI674
(F1017.2074364338234
F-146.35467785294119
tp678
sI675
(F1017.1611114338236
F-181.6825528529412
tp679
sI676
(F1017.0701114338237
F-236.81717785294117
tp680
sI677
(F-783.17556356617638
F-121.77250285294119
tp681
sI678
(F1017.0706364338237
F250.72749714705881
tp682
sI679
(F1017.0254364338236
F-314.27965285294124
tp683
stp684
Rp685
(dp686
S'description'
p687
S''
p688
sb.