ccopy_reg
_reconstructor
p0
(ccelltissue.serial.io_property
IOTissueProperty
p1
c__builtin__
dict
p2
(dp3
I0
(lp4
sI1
(lp5
sI2
(lp6
sI3
(lp7
sI4
(lp8
sI5
(lp9
sI6
(lp10
sI7
(lp11
sI8
(lp12
sI9
(lp13
sI10
(lp14
sI11
(lp15
sI12
(lp16
sI13
(lp17
sI14
(lp18
sI15
(lp19
sI16
(lp20
sI17
(lp21
sI18
(lp22
sI19
(lp23
sI20
(lp24
sI21
(lp25
sI22
(lp26
sI23
(lp27
sI24
(lp28
sI25
(lp29
sI26
(lp30
sI27
(lp31
sI28
(lp32
sI29
(lp33
sI30
(lp34
sI31
(lp35
sI32
(lp36
sI33
(lp37
sI34
(lp38
sI35
(lp39
sI36
(lp40
sI37
(lp41
sI38
(lp42
sI39
(lp43
sI40
(lp44
sI41
(lp45
sI42
(lp46
sI43
(lp47
sI44
(lp48
sI45
(lp49
sI46
(lp50
sI47
(lp51
sI48
(lp52
sI49
(lp53
sI50
(lp54
sI51
(lp55
sI52
(lp56
sI53
(lp57
sI54
(lp58
sI55
(lp59
sI56
(lp60
sI57
(lp61
sI58
(lp62
sI59
(lp63
sI60
(lp64
sI61
(lp65
sI62
(lp66
sI63
(lp67
sI64
(lp68
sI65
(lp69
sI66
(lp70
sI67
(lp71
sI68
(lp72
sI69
(lp73
sI70
(lp74
sI71
(lp75
sI72
(lp76
sI73
(lp77
sI74
(lp78
sI75
(lp79
sI76
(lp80
sI77
(lp81
sI78
(lp82
sI79
(lp83
sI80
(lp84
sI81
(lp85
sI82
(lp86
sI83
(lp87
sI84
(lp88
sI85
(lp89
sI86
(lp90
sI87
(lp91
sI88
(lp92
sI89
(lp93
sI90
(lp94
sI91
(lp95
sI92
(lp96
sI93
(lp97
sI94
(lp98
sI95
(lp99
sI96
(lp100
sI97
(lp101
sI98
(lp102
sI99
(lp103
sI100
(lp104
sI101
(lp105
sI102
(lp106
sI103
(lp107
sI104
(lp108
sI105
(lp109
sI106
(lp110
sI107
(lp111
sI108
(lp112
sI109
(lp113
sI110
(lp114
sI111
(lp115
sI112
(lp116
sI113
(lp117
sI114
(lp118
sI115
(lp119
sI116
(lp120
sI117
(lp121
sI118
(lp122
sI119
(lp123
sI120
(lp124
sI121
(lp125
sI122
(lp126
sI123
(lp127
sI124
(lp128
sI125
(lp129
sI126
(lp130
sI127
(lp131
sI128
(lp132
sI129
(lp133
sI130
(lp134
sI131
(lp135
sI132
(lp136
sI133
(lp137
sI134
(lp138
sI135
(lp139
sI136
(lp140
sI137
(lp141
sI138
(lp142
sI139
(lp143
sI140
(lp144
sI141
(lp145
sI142
(lp146
sI143
(lp147
sI144
(lp148
sI145
(lp149
sI146
(lp150
sI147
(lp151
sI148
(lp152
sI149
(lp153
sI150
(lp154
sI151
(lp155
sI152
(lp156
sI153
(lp157
sI154
(lp158
sI155
(lp159
sI156
(lp160
sI157
(lp161
sI158
(lp162
sI159
(lp163
sI160
(lp164
sI161
(lp165
sI162
(lp166
sI163
(lp167
sI164
(lp168
sI165
(lp169
sI166
(lp170
sI167
(lp171
sI168
(lp172
sI169
(lp173
sI170
(lp174
sI171
(lp175
sI172
(lp176
sI173
(lp177
sI174
(lp178
sI175
(lp179
sI176
(lp180
sI177
(lp181
sI178
(lp182
sI179
(lp183
sI180
(lp184
sI181
(lp185
sI182
(lp186
sI183
(lp187
sI184
(lp188
sI185
(lp189
sI186
(lp190
sI187
(lp191
sI188
(lp192
sI189
(lp193
sI190
(lp194
sI191
(lp195
sI192
(lp196
sI193
(lp197
sI194
(lp198
sI195
(lp199
sI196
(lp200
sI197
(lp201
sI198
(lp202
sI199
(lp203
sI200
(lp204
sI201
(lp205
sI202
(lp206
sI203
(lp207
sI204
(lp208
sI205
(lp209
sI206
(lp210
sI207
(lp211
sI208
(lp212
sI209
(lp213
sI210
(lp214
sI211
(lp215
sI212
(lp216
sI213
(lp217
sI214
(lp218
sI215
(lp219
sI216
(lp220
sI217
(lp221
sI218
(lp222
sI219
(lp223
sI220
(lp224
sI221
(lp225
sI222
(lp226
sI223
(lp227
sI224
(lp228
sI225
(lp229
sI226
(lp230
sI227
(lp231
sI228
(lp232
sI229
(lp233
sI230
(lp234
sI231
(lp235
sI232
(lp236
sI233
(lp237
sI234
(lp238
sI235
(lp239
sI236
(lp240
sI237
(lp241
sI238
(lp242
sI239
(lp243
sI240
(lp244
sI241
(lp245
sI242
(lp246
sI243
(lp247
sI244
(lp248
sI245
(lp249
sI246
(lp250
sI247
(lp251
sI248
(lp252
sI249
(lp253
sI250
(lp254
sI251
(lp255
sI252
(lp256
sI253
(lp257
sI254
(lp258
sI255
(lp259
sI256
(lp260
sI257
(lp261
sI258
(lp262
sI259
(lp263
sI260
(lp264
sI261
(lp265
sI262
(lp266
sI263
(lp267
sI264
(lp268
sI265
(lp269
sI266
(lp270
sI267
(lp271
sI268
(lp272
sI269
(lp273
sI270
(lp274
sI271
(lp275
sI272
(lp276
sI273
(lp277
sI274
(lp278
sI275
(lp279
sI276
(lp280
sI277
(lp281
sI278
(lp282
sI279
(lp283
sI280
(lp284
sI281
(lp285
sI282
(lp286
sI283
(lp287
sI284
(lp288
sI285
(lp289
sI286
(lp290
sI287
(lp291
sI288
(lp292
sI289
(lp293
sI290
(lp294
sI291
(lp295
sI292
(lp296
sI293
(lp297
sI294
(lp298
sI295
(lp299
sI296
(lp300
sI297
(lp301
sI298
(lp302
sI299
(lp303
sI300
(lp304
sI301
(lp305
sI302
(lp306
sI303
(lp307
sI304
(lp308
sI305
(lp309
sI306
(lp310
sI307
(lp311
sI308
(lp312
sI309
(lp313
sI310
(lp314
sI311
(lp315
sI312
(lp316
sI313
(lp317
sI314
(lp318
sI315
(lp319
sI316
(lp320
sI317
(lp321
sI318
(lp322
sI319
(lp323
sI320
(lp324
sI321
(lp325
sI322
(lp326
sI323
(lp327
sI324
(lp328
sI325
(lp329
sI326
(lp330
sI327
(lp331
sI328
(lp332
sI329
(lp333
sI330
(lp334
sI331
(lp335
sI332
(lp336
sI333
(lp337
sI334
(lp338
sI335
(lp339
sI336
(lp340
sI337
(lp341
sI338
(lp342
sI339
(lp343
sI340
(lp344
sI341
(lp345
sI342
(lp346
sI343
(lp347
sI344
(lp348
sI345
(lp349
sI346
(lp350
sI347
(lp351
sI348
(lp352
sI349
(lp353
sI350
(lp354
sI351
(lp355
sI352
(lp356
sI353
(lp357
sI354
(lp358
sI355
(lp359
sI356
(lp360
sI357
(lp361
sI358
(lp362
sI359
(lp363
sI360
(lp364
sI361
(lp365
sI362
(lp366
sI363
(lp367
sI364
(lp368
sI365
(lp369
sI366
(lp370
sI367
(lp371
sI368
(lp372
sI369
(lp373
sI370
(lp374
sI371
(lp375
sI372
(lp376
sI373
(lp377
sI374
(lp378
sI375
(lp379
sI376
(lp380
sI377
(lp381
sI378
(lp382
sI379
(lp383
sI380
(lp384
sI381
(lp385
sI382
(lp386
sI383
(lp387
sI384
(lp388
sI385
(lp389
sI386
(lp390
sI387
(lp391
sI388
(lp392
sI389
(lp393
sI390
(lp394
sI391
(lp395
sI392
(lp396
sI393
(lp397
sI394
(lp398
sI395
(lp399
sI396
(lp400
sI397
(lp401
sI398
(lp402
sI399
(lp403
sI400
(lp404
sI401
(lp405
sI402
(lp406
sI403
(lp407
sI404
(lp408
sI405
(lp409
sI406
(lp410
sI407
(lp411
sI408
(lp412
sI409
(lp413
sI410
(lp414
sI411
(lp415
sI412
(lp416
sI413
(lp417
sI414
(lp418
sI415
(lp419
sI416
(lp420
sI417
(lp421
sI418
(lp422
sI419
(lp423
sI420
(lp424
sI421
(lp425
sI422
(lp426
sI423
(lp427
sI424
(lp428
sI425
(lp429
sI426
(lp430
sI427
(lp431
sI428
(lp432
sI429
(lp433
sI430
(lp434
sI431
(lp435
sI432
(lp436
sI433
(lp437
sI434
(lp438
sI435
(lp439
sI436
(lp440
sI437
(lp441
sI438
(lp442
sI439
(lp443
sI440
(lp444
sI441
(lp445
sI442
(lp446
sI443
(lp447
sI444
(lp448
sI445
(lp449
sI446
(lp450
sI447
(lp451
sI448
(lp452
sI449
(lp453
sI450
(lp454
sI451
(lp455
sI452
(lp456
sI453
(lp457
sI454
(lp458
sI455
(lp459
sI456
(lp460
sI457
(lp461
sI458
(lp462
sI459
(lp463
sI460
(lp464
sI461
(lp465
sI462
(lp466
sI463
(lp467
sI464
(lp468
sI465
(lp469
sI466
(lp470
sI467
(lp471
sI468
(lp472
sI469
(lp473
sI470
(lp474
sI471
(lp475
sI472
(lp476
sI473
(lp477
sI474
(lp478
sI475
(lp479
sI476
(lp480
sI477
(lp481
sI478
(lp482
sI479
(lp483
sI480
(lp484
sI481
(lp485
sI482
(lp486
sI483
(lp487
sI484
(lp488
sI485
(lp489
sI486
(lp490
sI487
(lp491
sI488
(lp492
sI489
(lp493
sI490
(lp494
sI491
(lp495
sI492
(lp496
sI493
(lp497
sI494
(lp498
sI495
(lp499
sI496
(lp500
sI497
(lp501
sI498
(lp502
sI499
(lp503
sI500
(lp504
sI501
(lp505
sI502
(lp506
sI503
(lp507
sI504
(lp508
sI505
(lp509
sI506
(lp510
sI507
(lp511
sI508
(lp512
sI509
(lp513
sI510
(lp514
sI511
(lp515
sI512
(lp516
sI513
(lp517
sI514
(lp518
sI515
(lp519
sI516
(lp520
sI517
(lp521
sI518
(lp522
sI519
(lp523
sI520
(lp524
sI521
(lp525
sI522
(lp526
sI523
(lp527
sI524
(lp528
sI525
(lp529
sI526
(lp530
sI527
(lp531
sI528
(lp532
sI529
(lp533
sI530
(lp534
sI531
(lp535
sI532
(lp536
sI533
(lp537
sI534
(lp538
sI535
(lp539
sI536
(lp540
sI537
(lp541
sI538
(lp542
sI539
(lp543
sI540
(lp544
sI541
(lp545
sI542
(lp546
sI543
(lp547
sI544
(lp548
sI545
(lp549
sI546
(lp550
sI547
(lp551
sI548
(lp552
sI549
(lp553
sI550
(lp554
sI551
(lp555
sI552
(lp556
sI553
(lp557
sI554
(lp558
sI555
(lp559
sI556
(lp560
sI557
(lp561
sI558
(lp562
sI559
(lp563
sI560
(lp564
sI561
(lp565
sI562
(lp566
sI563
(lp567
sI564
(lp568
sI565
(lp569
sI566
(lp570
sI567
(lp571
sI568
(lp572
sI569
(lp573
sI570
(lp574
sI571
(lp575
sI572
(lp576
sI573
(lp577
sI574
(lp578
sI575
(lp579
sI576
(lp580
sI577
(lp581
sI578
(lp582
sI579
(lp583
sI580
(lp584
sI581
(lp585
sI582
(lp586
sI583
(lp587
sI584
(lp588
sI585
(lp589
sI586
(lp590
sI587
(lp591
sI588
(lp592
sI589
(lp593
sI590
(lp594
sI591
(lp595
sI592
(lp596
sI593
(lp597
sI594
(lp598
sI595
(lp599
sI596
(lp600
sI597
(lp601
sI598
(lp602
sI599
(lp603
sI600
(lp604
sI601
(lp605
sI602
(lp606
sI603
(lp607
sI604
(lp608
sI605
(lp609
sI606
(lp610
sI607
(lp611
sI608
(lp612
sI609
(lp613
sI610
(lp614
sI611
(lp615
sI612
(lp616
sI613
(lp617
sI614
(lp618
sI615
(lp619
sI616
(lp620
sI617
(lp621
sI618
(lp622
sI619
(lp623
sI620
(lp624
sI621
(lp625
sI622
(lp626
sI623
(lp627
sI624
(lp628
sI625
(lp629
sI626
(lp630
sI627
(lp631
sI628
(lp632
sI629
(lp633
sI630
(lp634
sI631
(lp635
sI632
(lp636
sI633
(lp637
sI634
(lp638
sI635
(lp639
sI636
(lp640
sI637
(lp641
sI638
(lp642
sI639
(lp643
sI640
(lp644
sI641
(lp645
sI642
(lp646
sI643
(lp647
sI644
(lp648
sI645
(lp649
sI646
(lp650
sI647
(lp651
sI648
(lp652
sI649
(lp653
sI650
(lp654
sI651
(lp655
sI652
(lp656
sI653
(lp657
sI654
(lp658
sI655
(lp659
sI656
(lp660
sI657
(lp661
sI658
(lp662
sI659
(lp663
sI660
(lp664
sI661
(lp665
sI662
(lp666
sI663
(lp667
sI664
(lp668
sI665
(lp669
sI666
(lp670
sI667
(lp671
sI668
(lp672
sI669
(lp673
sI670
(lp674
sI671
(lp675
sI672
(lp676
sI673
(lp677
sI674
(lp678
sI675
(lp679
sI676
(lp680
sI677
(lp681
sI678
(lp682
sI679
(lp683
stp684
Rp685
(dp686
S'scale'
p687
I2
sS'description'
p688
S''
p689
sb.