ccopy_reg
_reconstructor
p0
(ccelltissue.serial.io_property
IOTissueProperty
p1
c__builtin__
dict
p2
(dp3
I0
(lp4
I844
aI1010
aI448
aI124
aI36
aI666
asI1
(lp5
I291
aI912
aI344
aI1014
aI448
aI366
asI2
(lp6
I514
aI995
aI812
aI1010
aI1014
asI3
(lp7
I945
aI360
aI984
aI73
aI844
aI812
asI4
(lp8
I506
aI607
aI415
aI26
aI360
asI5
(lp9
I593
aI8
aI108
aI995
aI945
aI26
asI6
(lp10
I132
aI88
aI904
aI593
aI415
asI7
(lp11
I411
aI339
aI905
aI336
aI904
aI8
asI8
(lp12
I394
aI568
aI968
aI575
aI596
aI905
asI9
(lp13
I187
aI581
aI877
aI394
aI336
aI88
asI10
(lp14
I434
aI740
aI862
aI411
aI108
asI11
(lp15
I943
aI136
aI434
aI514
asI12
(lp16
I782
aI553
aI870
aI943
aI344
asI13
(lp17
I829
aI143
aI742
aI553
asI14
(lp18
I746
aI390
aI260
aI912
aI782
aI829
asI15
(lp19
I508
aI551
aI353
aI260
aI291
asI16
(lp20
I668
aI810
aI711
aI349
aI746
asI17
(lp21
I564
aI718
aI1029
aI353
aI390
aI349
asI18
(lp22
I107
aI692
aI957
aI189
aI711
aI564
asI19
(lp23
I66
aI113
aI453
aI110
aI957
asI20
(lp24
I146
aI461
aI890
aI110
aI189
aI810
asI21
(lp25
I894
aI519
aI143
aI668
aI146
asI22
(lp26
I51
aI496
aI662
aI5
aI461
aI894
asI23
(lp27
I325
aI518
aI5
aI890
aI453
asI24
(lp28
I808
aI78
aI53
aI325
aI113
asI25
(lp29
I977
aI922
aI222
aI171
aI518
aI662
asI26
(lp30
I382
aI354
aI608
aI171
aI53
asI27
(lp31
I300
aI393
aI241
aI613
aI490
aI776
aI922
asI28
(lp32
I917
aI300
aI222
aI608
aI614
asI29
(lp33
I55
aI899
aI141
aI317
aI393
aI917
asI30
(lp34
I361
aI872
aI304
aI317
aI241
asI31
(lp35
I263
aI1034
aI628
aI899
asI32
(lp36
I753
aI814
aI475
aI263
aI141
aI304
asI33
(lp37
I95
aI410
aI172
aI475
aI1034
asI34
(lp38
I693
aI292
aI658
aI809
aI410
asI35
(lp39
I38
aI420
aI786
aI755
aI182
aI758
aI330
aI292
asI36
(lp40
I154
aI364
aI807
aI937
aI639
aI240
aI182
asI37
(lp41
I1021
aI933
aI501
aI546
aI882
aI781
aI565
aI364
asI38
(lp42
I660
aI735
aI687
aI808
aI66
asI39
(lp43
I42
aI284
aI382
aI78
aI687
asI40
(lp44
I936
aI590
aI95
aI628
aI55
aI614
aI354
aI284
asI41
(lp45
I580
aI330
aI693
aI590
asI42
(lp46
I876
aI460
aI660
aI692
asI43
(lp47
I262
aI1000
aI718
aI107
aI876
asI44
(lp48
I926
aI58
aI1000
aI1029
asI45
(lp49
I67
aI605
aI926
aI551
asI46
(lp50
I197
aI205
aI508
aI366
aI124
asI47
(lp51
I703
aI101
aI312
aI164
aI666
asI48
(lp52
I429
aI226
aI67
aI205
asI49
(lp53
I235
aI492
aI429
aI197
aI36
aI164
asI50
(lp54
I664
aI946
aI312
aI235
asI51
(lp55
I345
aI503
aI73
aI703
asI52
(lp56
I729
aI306
aI506
aI984
aI503
asI53
(lp57
I228
aI187
aI132
aI607
aI306
asI54
(lp58
I17
aI689
aI1011
aI1012
aI877
aI568
asI55
(lp59
I447
aI1058
aI1020
aI4
aI705
aI815
aI1011
asI56
(lp60
I404
aI456
aI218
aI449
aI705
asI57
(lp61
I669
aI504
aI699
aI478
aI835
aI218
asI58
(lp62
I914
aI471
aI1002
aI770
aI23
aI478
asI59
(lp63
I838
aI686
aI1015
aI1022
aI596
aI339
aI862
asI60
(lp64
I783
aI43
aI619
aI575
aI1022
asI61
(lp65
I960
aI17
aI968
aI619
aI215
asI62
(lp66
I16
aI186
aI106
aI447
aI689
aI960
asI63
(lp67
I281
aI207
aI1058
aI106
asI64
(lp68
I238
aI37
aI1020
aI207
asI65
(lp69
I749
aI527
aI611
aI119
aI404
aI4
aI37
asI66
(lp70
I530
aI1051
aI338
aI669
aI456
aI119
asI67
(lp71
I165
aI257
aI550
aI504
aI338
asI68
(lp72
I828
aI25
aI351
aI914
aI699
aI550
asI69
(lp73
I174
aI676
aI1008
aI223
aI471
aI351
asI70
(lp74
I713
aI424
aI1002
aI223
aI560
asI71
(lp75
I513
aI193
aI801
aI277
aI770
aI424
asI72
(lp76
I357
aI656
aI169
aI805
aI435
aI801
asI73
(lp77
I363
aI798
aI971
aI794
aI805
asI74
(lp78
I373
aI322
aI859
aI975
aI971
asI75
(lp79
I18
aI778
aI288
aI63
aI859
asI76
(lp80
I728
aI21
aI128
aI620
aI288
asI77
(lp81
I104
aI928
aI316
aI289
aI594
aI128
asI78
(lp82
I311
aI745
aI923
aI741
aI289
asI79
(lp83
I318
aI274
aI457
aI924
aI923
asI80
(lp84
I671
aI255
aI401
aI457
asI81
(lp85
I510
aI635
aI740
aI838
asI82
(lp86
I250
aI976
aI136
aI635
asI83
(lp87
I206
aI118
aI870
aI976
asI84
(lp88
I509
aI340
aI742
aI118
asI85
(lp89
I867
aI873
aI519
aI340
asI86
(lp90
I85
aI861
aI524
aI51
aI873
asI87
(lp91
I254
aI112
aI555
aI591
aI509
aI867
aI85
asI88
(lp92
I520
aI820
aI123
aI650
aI332
aI250
aI206
aI591
asI89
(lp93
I446
aI369
aI861
aI254
asI90
(lp94
I967
aI1040
aI583
aI776
aI977
aI496
aI524
asI91
(lp95
I515
aI253
aI663
aI490
aI583
asI92
(lp96
I678
aI100
aI361
aI613
aI663
asI93
(lp97
I911
aI474
aI872
aI100
asI94
(lp98
I765
aI161
aI414
aI753
aI474
asI95
(lp99
I219
aI934
aI814
aI414
asI96
(lp100
I1019
aI930
aI172
aI934
asI97
(lp101
I708
aI370
aI707
aI809
aI930
asI98
(lp102
I405
aI1050
aI658
aI707
asI99
(lp103
I1031
aI941
aI38
aI1050
asI100
(lp104
I64
aI15
aI420
aI941
asI101
(lp105
I558
aI939
aI200
aI786
aI15
asI102
(lp106
I522
aI720
aI755
aI200
asI103
(lp107
I148
aI889
aI240
aI720
asI104
(lp108
I98
aI824
aI333
aI639
aI889
asI105
(lp109
I767
aI1044
aI1030
aI937
aI333
asI106
(lp110
I323
aI974
aI615
aI807
aI1030
asI107
(lp111
I1041
aI413
aI935
aI565
aI615
asI108
(lp112
I821
aI347
aI781
aI935
asI109
(lp113
I1052
aI896
aI882
aI347
asI110
(lp114
I61
aI576
aI90
aI546
aI896
asI111
(lp115
I849
aI319
aI183
aI501
aI90
asI112
(lp116
I682
aI766
aI933
aI183
asI113
(lp117
I586
aI293
aI534
aI162
aI766
asI114
(lp118
I698
aI679
aI102
aI534
asI115
(lp119
I642
aI298
aI99
aI679
asI116
(lp120
I111
aI562
aI268
aI81
aI298
asI117
(lp121
I712
aI673
aI963
aI675
aI268
asI118
(lp122
I3
aI833
aI488
aI45
aI963
asI119
(lp123
I925
aI659
aI308
aI811
aI488
asI120
(lp124
I909
aI116
aI335
aI559
aI308
asI121
(lp125
I777
aI1033
aI422
aI335
asI122
(lp126
I425
aI792
aI752
aI1033
asI123
(lp127
I170
aI465
aI265
aI780
aI792
asI124
(lp128
I65
aI265
aI544
aI374
asI125
(lp129
I858
aI445
aI686
aI510
aI332
asI126
(lp130
I209
aI224
aI487
aI858
aI650
asI127
(lp131
I276
aI665
aI783
aI1015
aI445
aI487
asI128
(lp132
I677
aI744
aI803
aI276
aI224
asI129
(lp133
I386
aI166
aI16
aI215
aI43
aI665
aI803
asI130
(lp134
I845
aI24
aI480
aI386
aI744
asI131
(lp135
I22
aI28
aI697
aI281
aI186
aI166
asI132
(lp136
I1059
aI837
aI201
aI22
aI480
asI133
(lp137
I834
aI365
aI749
aI238
aI697
asI134
(lp138
I72
aI972
aI267
aI834
aI28
aI201
asI135
(lp139
I114
aI763
aI527
aI365
asI136
(lp140
I1028
aI719
aI303
aI114
aI267
asI137
(lp141
I299
aI348
aI140
aI303
asI138
(lp142
I140
aI491
aI643
aI530
aI611
aI763
asI139
(lp143
I981
aI251
aI297
aI165
aI1051
aI643
asI140
(lp144
I179
aI670
aI184
aI991
aI828
aI257
aI297
asI141
(lp145
I769
aI980
aI683
aI981
aI491
aI348
asI142
(lp146
I878
aI954
aI202
aI179
aI251
aI683
asI143
(lp147
I825
aI716
aI670
aI202
asI144
(lp148
I155
aI438
aI915
aI184
aI716
asI145
(lp149
I105
aI1016
aI174
aI25
aI991
aI915
asI146
(lp150
I160
aI779
aI409
aI676
aI1016
asI147
(lp151
I151
aI932
aI537
aI160
aI105
aI438
asI148
(lp152
I1042
aI127
aI121
aI560
aI1008
aI409
asI149
(lp153
I913
aI135
aI623
aI1042
aI779
aI537
asI150
(lp154
I463
aI929
aI772
aI359
aI513
aI713
aI121
asI151
(lp155
I774
aI738
aI649
aI463
aI127
aI623
asI152
(lp156
I83
aI356
aI616
aI357
aI193
aI359
asI153
(lp157
I40
aI385
aI929
aI649
asI154
(lp158
I903
aI1007
aI83
aI772
aI385
asI155
(lp159
I229
aI252
aI531
aI656
aI616
asI156
(lp160
I153
aI79
aI993
aI229
aI356
aI1007
asI157
(lp161
I579
aI747
aI452
aI363
aI169
aI531
asI158
(lp162
I846
aI20
aI458
aI373
aI798
aI452
asI159
(lp163
I484
aI397
aI469
aI579
aI252
aI993
asI160
(lp164
I232
aI150
aI846
aI747
aI469
asI161
(lp165
I644
aI631
aI545
aI517
aI20
aI150
asI162
(lp166
I1045
aI819
aI536
aI18
aI322
aI458
aI517
asI163
(lp167
I797
aI377
aI1045
aI545
asI164
(lp168
I582
aI852
aI949
aI728
aI778
aI536
asI165
(lp169
I961
aI955
aI582
aI819
aI377
asI166
(lp170
I158
aI56
aI233
aI362
aI852
aI955
asI167
(lp171
I569
aI428
aI104
aI21
aI949
aI362
asI168
(lp172
I641
aI1018
aI455
aI928
aI428
asI169
(lp173
I886
aI563
aI290
aI641
aI569
aI233
asI170
(lp174
I313
aI459
aI421
aI311
aI316
aI455
asI171
(lp175
I706
aI243
aI1037
aI313
aI1018
aI290
asI172
(lp176
I131
aI549
aI1003
aI318
aI745
aI421
asI173
(lp177
I52
aI714
aI505
aI131
aI459
aI1037
asI174
(lp178
I538
aI157
aI853
aI671
aI274
aI1003
asI175
(lp179
I827
aI221
aI441
aI538
aI549
aI505
asI176
(lp180
I328
aI483
aI157
aI441
asI177
(lp181
I214
aI597
aI541
aI967
aI369
asI178
(lp182
I973
aI259
aI515
aI1040
aI541
asI179
(lp183
I450
aI727
aI655
aI678
aI253
aI259
asI180
(lp184
I191
aI855
aI765
aI911
aI655
asI181
(lp185
I787
aI856
aI14
aI219
aI161
aI855
asI182
(lp186
I391
aI731
aI857
aI973
aI597
asI183
(lp187
I416
aI261
aI380
aI450
aI857
asI184
(lp188
I309
aI528
aI74
aI787
aI191
aI727
aI380
asI185
(lp189
I773
aI795
aI708
aI1019
aI14
asI186
(lp190
I696
aI180
aI561
aI370
aI795
asI187
(lp191
I813
aI30
aI796
aI1031
aI405
aI561
asI188
(lp192
I931
aI1056
aI242
aI696
aI773
aI856
aI74
asI189
(lp193
I486
aI236
aI535
aI813
aI180
aI242
asI190
(lp194
I387
aI817
aI196
aI558
aI64
aI796
asI191
(lp195
I725
aI211
aI800
aI522
aI939
aI196
asI192
(lp196
I247
aI60
aI481
aI148
aI800
asI193
(lp197
I654
aI498
aI98
aI481
asI194
(lp198
I552
aI1046
aI667
aI767
aI824
aI498
asI195
(lp199
I771
aI117
aI916
aI387
aI30
aI535
asI196
(lp200
I283
aI578
aI987
aI725
aI817
aI916
asI197
(lp201
I278
aI895
aI247
aI211
aI987
asI198
(lp202
I402
aI396
aI1009
aI552
aI654
aI60
aI895
asI199
(lp203
I978
aI866
aI462
aI1046
aI1009
asI200
(lp204
I407
aI476
aI323
aI1044
aI667
aI462
asI201
(lp205
I489
aI423
aI989
aI1041
aI974
aI476
asI202
(lp206
I246
aI302
aI739
aI821
aI413
aI989
asI203
(lp207
I282
aI9
aI1052
aI739
asI204
(lp208
I624
aI982
aI61
aI9
asI205
(lp209
I216
aI142
aI489
aI407
aI866
asI206
(lp210
I793
aI956
aI246
aI423
aI142
asI207
(lp211
I57
aI789
aI302
aI956
asI208
(lp212
I543
aI952
aI282
aI789
asI209
(lp213
I516
aI41
aI672
aI849
aI576
aI982
asI210
(lp214
I657
aI440
aI908
aI604
aI586
aI682
aI319
aI672
asI211
(lp215
I367
aI6
aI806
aI516
aI624
aI952
asI212
(lp216
I585
aI1036
aI657
aI41
aI806
asI213
(lp217
I2
aI997
aI440
aI1036
asI214
(lp218
I632
aI35
aI31
aI698
aI293
aI604
asI215
(lp219
I618
aI82
aI632
aI908
aI997
asI216
(lp220
I375
aI46
aI598
aI642
aI31
asI217
(lp221
I888
aI76
aI35
aI82
asI218
(lp222
I87
aI389
aI775
aI375
aI76
asI219
(lp223
I757
aI388
aI111
aI598
asI220
(lp224
I539
aI574
aI823
aI712
aI562
aI388
asI221
(lp225
I627
aI485
aI732
aI3
aI673
aI823
asI222
(lp226
I951
aI533
aI507
aI539
aI757
aI46
aI775
asI223
(lp227
I1013
aI134
aI627
aI574
aI507
asI224
(lp228
I730
aI661
aI651
aI925
aI833
aI732
asI225
(lp229
I572
aI847
aI730
aI485
aI134
asI226
(lp230
I194
aI842
aI75
aI909
aI659
aI651
asI227
(lp231
I244
aI1027
aI384
aI194
aI661
aI847
asI228
(lp232
I680
aI791
aI965
aI777
aI116
aI75
asI229
(lp233
I350
aI342
aI433
aI680
aI842
aI384
asI230
(lp234
I139
aI640
aI799
aI170
aI425
aI965
asI231
(lp235
I865
aI381
aI500
aI139
aI791
aI433
asI232
(lp236
I175
aI570
aI27
aI544
aI465
aI799
asI233
(lp237
I893
aI969
aI175
aI640
aI500
asI234
(lp238
I721
aI736
aI570
aI969
asI235
(lp239
I674
aI248
aI944
aI209
aI123
asI236
(lp240
I337
aI1005
aI950
aI845
aI677
aI944
asI237
(lp241
I902
aI566
aI493
aI1059
aI24
aI950
asI238
(lp242
I376
aI392
aI848
aI72
aI837
aI493
asI239
(lp243
I724
aI864
aI717
aI674
aI820
asI240
(lp244
I326
aI831
aI724
aI520
aI555
asI241
(lp245
I702
aI427
aI50
aI337
aI248
aI717
asI242
(lp246
I637
aI103
aI902
aI1005
aI50
asI243
(lp247
I751
aI1004
aI220
aI637
aI427
asI244
(lp248
I89
aI617
aI1028
aI972
aI848
asI245
(lp249
I314
aI321
aI376
aI566
aI103
asI246
(lp250
I109
aI919
aI1025
aI314
aI220
asI247
(lp251
I636
aI59
aI502
aI769
aI299
aI719
aI617
asI248
(lp252
I343
aI1
aI881
aI878
aI980
aI502
asI249
(lp253
I897
aI554
aI636
aI89
aI392
aI321
asI250
(lp254
I378
aI869
aI557
aI239
aI897
aI1025
asI251
(lp255
I49
aI947
aI825
aI954
aI881
asI252
(lp256
I92
aI1048
aI343
aI59
aI554
aI239
asI253
(lp257
I1026
aI600
aI7
aI151
aI155
aI947
asI254
(lp258
I444
aI1024
aI822
aI1026
aI49
aI1
aI1048
asI255
(lp259
I953
aI887
aI764
aI444
aI92
aI557
asI256
(lp260
I547
aI54
aI986
aI913
aI932
aI7
asI257
(lp261
I442
aI48
aI84
aI774
aI135
aI986
asI258
(lp262
I587
aI47
aI648
aI547
aI600
aI822
asI259
(lp263
I97
aI733
aI442
aI54
aI648
asI260
(lp264
I647
aI346
aI587
aI1024
aI764
asI261
(lp265
I966
aI871
aI40
aI738
aI84
asI262
(lp266
I39
aI96
aI379
aI47
aI346
asI263
(lp267
I588
aI540
aI152
aI213
aI379
aI97
asI264
(lp268
I355
aI762
aI266
aI966
aI48
aI733
aI588
asI265
(lp269
I230
aI646
aI153
aI903
aI871
aI266
asI266
(lp270
I880
aI653
aI19
aI355
aI540
asI267
(lp271
I34
aI652
aI91
aI484
aI79
aI646
asI268
(lp272
I286
aI592
aI34
aI230
aI762
aI19
asI269
(lp273
I920
aI907
aI408
aI286
aI653
asI270
(lp274
I176
aI1049
aI644
aI232
aI397
aI91
asI271
(lp275
I595
aI994
aI470
aI176
aI652
aI592
asI272
(lp276
I601
aI839
aI523
aI595
aI408
asI273
(lp277
I68
aI1001
aI797
aI631
aI1049
asI274
(lp278
I938
aI305
aI217
aI158
aI961
aI1001
asI275
(lp279
I115
aI874
aI44
aI938
aI68
aI470
asI276
(lp280
I71
aI695
aI115
aI994
aI523
asI277
(lp281
I437
aI694
aI886
aI56
aI217
asI278
(lp282
I785
aI324
aI875
aI437
aI305
aI44
asI279
(lp283
I439
aI156
aI525
aI468
aI785
aI874
aI695
asI280
(lp284
I630
aI942
aI706
aI563
aI694
aI875
asI281
(lp285
I177
aI482
aI52
aI243
aI942
asI282
(lp286
I990
aI129
aI1035
aI827
aI714
aI482
asI283
(lp287
I737
aI203
aI417
aI990
aI177
aI630
aI324
asI284
(lp288
I334
aI759
aI285
aI737
aI468
asI285
(lp289
I395
aI802
aI328
aI221
aI1035
asI286
(lp290
I479
aI430
aI395
aI129
aI417
asI287
(lp291
I988
aI756
aI479
aI203
aI285
asI288
(lp292
I854
aI891
aI768
aI391
aI214
aI446
aI112
aI326
asI289
(lp293
I185
aI1060
aI521
aI854
aI831
asI290
(lp294
I93
aI573
aI383
aI751
aI702
aI864
aI185
asI291
(lp295
I885
aI192
aI940
aI891
aI521
asI292
(lp296
I645
aI999
aI93
aI1060
aI885
asI293
(lp297
I818
aI70
aI416
aI731
aI768
aI940
asI294
(lp298
I419
aI280
aI309
aI261
aI70
asI295
(lp299
I178
aI320
aI272
aI931
aI528
aI280
asI296
(lp300
I352
aI258
aI451
aI486
aI1056
aI272
asI297
(lp301
I0
aI723
aI419
aI818
aI192
aI645
asI298
(lp302
I606
aI279
aI418
aI743
aI548
aI0
aI999
aI573
asI299
(lp303
I625
aI998
aI178
aI723
aI548
asI300
(lp304
I499
aI130
aI473
aI826
aI625
aI743
asI301
(lp305
I454
aI556
aI271
aI331
aI499
aI418
asI302
(lp306
I910
aI621
aI790
aI454
aI279
asI303
(lp307
I69
aI109
aI1004
aI383
aI606
aI910
asI304
(lp308
I900
aI497
aI477
aI378
aI919
aI69
aI621
asI305
(lp309
I918
aI843
aI900
aI790
aI556
asI306
(lp310
I495
aI352
aI320
aI998
aI826
asI307
(lp311
I1038
aI432
aI315
aI771
aI236
aI451
asI308
(lp312
I159
aI964
aI283
aI117
aI315
asI309
(lp313
I701
aI327
aI1038
aI258
aI495
aI473
asI310
(lp314
I700
aI494
aI477
aI869
aI953
asI311
(lp315
I840
aI921
aI198
aI10
aI494
aI497
aI843
asI312
(lp316
I710
aI188
aI840
aI918
aI271
asI313
(lp317
I1017
aI629
aI710
aI331
aI130
aI701
asI314
(lp318
I634
aI1023
aI402
aI278
aI578
aI964
asI315
(lp319
I371
aI12
aI159
aI432
aI327
aI1017
asI316
(lp320
I13
aI690
aI371
aI629
asI317
(lp321
I431
aI472
aI13
aI188
aI921
asI318
(lp322
I748
aI958
aI985
aI216
aI978
aI396
aI1023
asI319
(lp323
I830
aI122
aI126
aI57
aI793
aI985
asI320
(lp324
I979
aI860
aI33
aI748
aI634
aI12
asI321
(lp325
I372
aI147
aI979
aI690
aI472
asI322
(lp326
I77
aI996
aI884
aI372
aI431
aI198
asI323
(lp327
I836
aI612
aI436
aI77
aI10
asI324
(lp328
I270
aI39
aI647
aI887
aI700
aI836
asI325
(lp329
I399
aI511
aI367
aI543
aI126
asI326
(lp330
I898
aI125
aI638
aI2
aI585
aI6
aI511
asI327
(lp331
I94
aI883
aI584
aI87
aI888
aI618
aI638
asI328
(lp332
I1006
aI144
aI951
aI389
aI584
asI329
(lp333
I426
aI602
aI512
aI244
aI572
aI1013
aI533
aI144
asI330
(lp334
I901
aI204
aI350
aI1027
aI512
asI331
(lp335
I329
aI256
aI681
aI865
aI342
aI204
asI332
(lp336
I227
aI832
aI721
aI893
aI381
aI681
asI333
(lp337
I754
aI168
aI830
aI958
aI33
asI334
(lp338
I32
aI231
aI245
aI722
aI147
aI860
aI754
asI335
(lp339
I816
aI62
aI884
aI722
asI336
(lp340
I138
aI526
aI341
aI436
aI996
aI62
asI337
(lp341
I190
aI213
aI96
aI270
aI612
aI341
asI338
(lp342
I181
aI589
aI571
aI898
aI399
aI122
aI168
aI32
asI339
(lp343
I173
aI760
aI181
aI231
asI340
(lp344
I633
aI529
aI264
aI138
aI816
aI245
aI173
asI341
(lp345
I275
aI1055
aI264
aI526
asI342
(lp346
I622
aI920
aI880
aI152
aI190
aI275
asI343
(lp347
I403
aI1032
aI94
aI125
aI571
asI344
(lp348
I626
aI368
aI684
aI760
aI589
aI403
asI345
(lp349
I1047
aI691
aI633
aI684
asI346
(lp350
I137
aI287
aI1055
aI529
aI691
asI347
(lp351
I863
aI601
aI907
aI622
aI287
asI348
(lp352
I133
aI851
aI948
aI426
aI1006
aI883
aI1032
aI626
asI349
(lp353
I761
aI927
aI133
aI368
asI350
(lp354
I850
aI237
aI542
aI761
aI1047
asI351
(lp355
I412
aI704
aI850
aI137
asI352
(lp356
I970
aI439
aI71
aI839
aI863
aI412
asI353
(lp357
I466
aI610
aI249
aI329
aI901
aI602
aI948
asI354
(lp358
I879
aI406
aI466
aI851
aI927
asI355
(lp359
I906
aI992
aI715
aI788
aI879
aI542
asI356
(lp360
I294
aI208
aI80
aI906
aI237
aI704
asI357
(lp361
I225
aI156
aI970
aI294
asI358
(lp362
I726
aI163
aI86
aI599
aI610
aI406
aI788
asI359
(lp363
I467
aI120
aI726
aI715
asI360
(lp364
I1053
aI1057
aI212
aI464
aI467
aI992
aI80
asI361
(lp365
I307
aI334
aI525
aI225
aI208
aI1053
asI362
(lp366
I892
aI269
aI227
aI256
aI249
aI599
asI363
(lp367
I301
aI443
aI892
aI86
asI364
(lp368
I358
aI149
aI301
aI163
aI120
aI464
asI365
(lp369
I234
aI1054
aI358
aI212
asI366
(lp370
I1057
aI307
aI759
aI988
aI841
aI234
asI367
(lp371
I959
aI374
aI310
aI709
asI368
(lp372
I310
aI27
aI532
aI1039
asI369
(lp373
I532
aI736
aI400
aI1043
asI370
(lp374
I400
aI832
aI296
aI210
asI371
(lp375
I296
aI269
aI784
aI734
asI372
(lp376
I784
aI443
aI398
aI609
asI373
(lp377
I398
aI149
aI195
aI167
asI374
(lp378
I195
aI1054
aI577
aI685
asI375
(lp379
I577
aI841
aI804
aI962
asI376
(lp380
I804
aI756
aI603
aI750
asI377
(lp381
I603
aI430
aI29
aI273
asI378
(lp382
I29
aI802
aI868
aI199
asI379
(lp383
I868
aI483
aI688
aI567
asI380
(lp384
I688
aI853
aI145
aI983
asI381
(lp385
I145
aI255
aI11
aI295
astp386
Rp387
(dp388
S'scale'
p389
I0
sS'description'
p390
S''
p391
sb.