ccopy_reg
_reconstructor
p0
(ccelltissue.serial.io_property
IOTissueProperty
p1
c__builtin__
dict
p2
(dp3
I0
(lp4
I559
aI566
asI1
(lp5
I485
aI486
asI2
(lp6
I426
aI427
asI3
(lp7
I254
aI256
asI4
(lp8
I125
aI126
asI5
(lp9
I54
aI58
asI6
(lp10
I424
aI425
asI7
(lp11
I311
aI494
asI8
(lp12
I18
aI19
asI9
(lp13
I237
aI413
asI10
(lp14
I587
aI590
asI11
(lp15
I193
aI679
asI12
(lp16
I585
aI594
asI13
(lp17
I591
aI595
asI14
(lp18
I217
aI374
asI15
(lp19
I88
aI223
asI16
(lp20
I144
aI145
asI17
(lp21
I26
aI120
asI18
(lp22
I174
aI176
asI19
(lp23
I513
aI517
asI20
(lp24
I332
aI333
asI21
(lp25
I179
aI180
asI22
(lp26
I280
aI283
asI23
(lp27
I134
aI138
asI24
(lp28
I281
aI282
asI25
(lp29
I156
aI157
asI26
(lp30
I12
aI17
asI27
(lp31
I273
aI460
asI28
(lp32
I283
aI284
asI29
(lp33
I548
aI673
asI30
(lp34
I384
aI385
asI31
(lp35
I246
aI429
asI32
(lp36
I620
aI621
asI33
(lp37
I597
aI602
asI34
(lp38
I515
aI518
asI35
(lp39
I428
aI429
asI36
(lp40
I4
aI5
asI37
(lp41
I125
aI148
asI38
(lp42
I85
aI87
asI39
(lp43
I506
aI508
asI40
(lp44
I321
aI324
asI41
(lp45
I419
aI420
asI42
(lp46
I105
aI106
asI43
(lp47
I142
aI143
asI44
(lp48
I529
aI532
asI45
(lp49
I255
aI258
asI46
(lp50
I431
aI432
asI47
(lp51
I503
aI504
asI48
(lp52
I501
aI502
asI49
(lp53
I486
aI491
asI50
(lp54
I465
aI475
asI51
(lp55
I55
aI56
asI52
(lp56
I357
aI360
asI53
(lp57
I59
aI61
asI54
(lp58
I499
aI500
asI55
(lp59
I72
aI73
asI56
(lp60
I346
aI347
asI57
(lp61
I416
aI417
asI58
(lp62
I109
aI110
asI59
(lp63
I483
aI484
asI60
(lp64
I394
aI395
asI61
(lp65
I237
aI238
asI62
(lp66
I605
aI624
asI63
(lp67
I175
aI178
asI64
(lp68
I222
aI223
asI65
(lp69
I271
aI272
asI66
(lp70
I48
aI50
asI67
(lp71
I40
aI111
asI68
(lp72
I523
aI528
asI69
(lp73
I481
aI578
asI70
(lp74
I377
aI560
asI71
(lp75
I527
aI533
asI72
(lp76
I286
aI288
asI73
(lp77
I0
aI14
asI74
(lp78
I373
aI380
asI75
(lp79
I262
aI448
asI76
(lp80
I429
aI433
asI77
(lp81
I590
aI604
asI78
(lp82
I60
aI61
asI79
(lp83
I328
aI329
asI80
(lp84
I647
aI651
asI81
(lp85
I249
aI252
asI82
(lp86
I428
aI430
asI83
(lp87
I319
aI322
asI84
(lp88
I320
aI502
asI85
(lp89
I198
aI199
asI86
(lp90
I653
aI654
asI87
(lp91
I433
aI434
asI88
(lp92
I20
aI21
asI89
(lp93
I470
aI479
asI90
(lp94
I100
aI239
asI91
(lp95
I334
aI519
asI92
(lp96
I490
aI492
asI93
(lp97
I553
aI555
asI94
(lp98
I610
aI611
asI95
(lp99
I79
aI82
asI96
(lp100
I508
aI509
asI97
(lp101
I504
aI505
asI98
(lp102
I227
aI228
asI99
(lp103
I247
aI249
asI100
(lp104
I76
aI213
asI101
(lp105
I113
aI114
asI102
(lp106
I245
aI247
asI103
(lp107
I467
aI476
asI104
(lp108
I180
aI182
asI105
(lp109
I307
aI308
asI106
(lp110
I123
aI146
asI107
(lp111
I45
aI47
asI108
(lp112
I10
aI19
asI109
(lp113
I478
aI481
asI110
(lp114
I49
aI52
asI111
(lp115
I248
aI250
asI112
(lp116
I201
aI202
asI113
(lp117
I50
aI51
asI114
(lp118
I287
aI290
asI115
(lp119
I525
aI531
asI116
(lp120
I262
aI263
asI117
(lp121
I399
aI400
asI118
(lp122
I35
aI196
asI119
(lp123
I128
aI151
asI120
(lp124
I652
aI655
asI121
(lp125
I161
aI314
asI122
(lp126
I599
aI600
asI123
(lp127
I205
aI206
asI124
(lp128
I3
aI4
asI125
(lp129
I609
aI610
asI126
(lp130
I417
aI600
asI127
(lp131
I313
aI314
asI128
(lp132
I180
aI181
asI129
(lp133
I542
aI543
asI130
(lp134
I572
aI573
asI131
(lp135
I355
aI358
asI132
(lp136
I16
aI20
asI133
(lp137
I634
aI638
asI134
(lp138
I439
aI443
asI135
(lp139
I315
aI316
asI136
(lp140
I31
aI33
asI137
(lp141
I636
aI637
asI138
(lp142
I624
aI625
asI139
(lp143
I452
aI455
asI140
(lp144
I290
aI294
asI141
(lp145
I74
aI75
asI142
(lp146
I409
aI415
asI143
(lp147
I36
aI37
asI144
(lp148
I441
aI613
asI145
(lp149
I192
aI676
asI146
(lp150
I42
aI53
asI147
(lp151
I601
aI603
asI148
(lp152
I226
aI227
asI149
(lp153
I660
aI661
asI150
(lp154
I332
aI336
asI151
(lp155
I306
aI311
asI152
(lp156
I511
aI512
asI153
(lp157
I325
aI328
asI154
(lp158
I91
aI93
asI155
(lp159
I305
aI306
asI156
(lp160
I537
aI538
asI157
(lp161
I362
aI363
asI158
(lp162
I345
aI346
asI159
(lp163
I584
aI585
asI160
(lp164
I308
aI309
asI161
(lp165
I215
aI216
asI162
(lp166
I98
aI245
asI163
(lp167
I652
aI653
asI164
(lp168
I5
aI115
asI165
(lp169
I153
aI154
asI166
(lp170
I145
aI280
asI167
(lp171
I668
aI669
asI168
(lp172
I599
aI620
asI169
(lp173
I167
aI168
asI170
(lp174
I267
aI269
asI171
(lp175
I59
aI64
asI172
(lp176
I81
aI83
asI173
(lp177
I622
aI629
asI174
(lp178
I157
aI158
asI175
(lp179
I456
aI459
asI176
(lp180
I519
aI523
asI177
(lp181
I540
aI541
asI178
(lp182
I561
aI562
asI179
(lp183
I297
aI298
asI180
(lp184
I382
aI383
asI181
(lp185
I621
aI627
asI182
(lp186
I90
aI91
asI183
(lp187
I99
aI241
asI184
(lp188
I299
aI300
asI185
(lp189
I471
aI553
asI186
(lp190
I145
aI146
asI187
(lp191
I20
aI29
asI188
(lp192
I588
aI591
asI189
(lp193
I43
aI49
asI190
(lp194
I512
aI626
asI191
(lp195
I371
aI372
asI192
(lp196
I557
aI558
asI193
(lp197
I163
aI164
asI194
(lp198
I445
aI447
asI195
(lp199
I661
aI669
asI196
(lp200
I224
aI391
asI197
(lp201
I4
aI112
asI198
(lp202
I589
aI590
asI199
(lp203
I673
aI674
asI200
(lp204
I89
aI225
asI201
(lp205
I283
aI286
asI202
(lp206
I298
aI304
asI203
(lp207
I544
aI545
asI204
(lp208
I453
aI616
asI205
(lp209
I40
aI112
asI206
(lp210
I195
aI196
asI207
(lp211
I124
aI147
asI208
(lp212
I650
aI651
asI209
(lp213
I206
aI275
asI210
(lp214
I665
aI666
asI211
(lp215
I392
aI393
asI212
(lp216
I657
aI658
asI213
(lp217
I509
aI512
asI214
(lp218
I208
aI367
asI215
(lp219
I143
aI144
asI216
(lp220
I406
aI415
asI217
(lp221
I346
aI530
asI218
(lp222
I129
aI130
asI219
(lp223
I216
aI217
asI220
(lp224
I476
aI478
asI221
(lp225
I364
aI365
asI222
(lp226
I63
aI64
asI223
(lp227
I136
aI160
asI224
(lp228
I275
aI276
asI225
(lp229
I538
aI650
asI226
(lp230
I111
aI116
asI227
(lp231
I618
aI619
asI228
(lp232
I29
aI119
asI229
(lp233
I323
aI326
asI230
(lp234
I514
aI515
asI231
(lp235
I621
aI622
asI232
(lp236
I335
aI336
asI233
(lp237
I347
aI348
asI234
(lp238
I657
aI662
asI235
(lp239
I115
aI117
asI236
(lp240
I388
aI389
asI237
(lp241
I641
aI642
asI238
(lp242
I147
aI148
asI239
(lp243
I487
aI490
asI240
(lp244
I90
aI97
asI241
(lp245
I68
aI69
asI242
(lp246
I382
aI387
asI243
(lp247
I356
aI357
asI244
(lp248
I446
aI449
asI245
(lp249
I622
aI623
asI246
(lp250
I410
aI411
asI247
(lp251
I393
aI394
asI248
(lp252
I463
aI464
asI249
(lp253
I617
aI645
asI250
(lp254
I194
aI195
asI251
(lp255
I296
aI297
asI252
(lp256
I326
aI327
asI253
(lp257
I211
aI212
asI254
(lp258
I199
aI201
asI255
(lp259
I192
aI193
asI256
(lp260
I617
aI618
asI257
(lp261
I154
aI155
asI258
(lp262
I564
aI565
asI259
(lp263
I211
aI369
asI260
(lp264
I7
aI39
asI261
(lp265
I377
aI378
asI262
(lp266
I108
aI109
asI263
(lp267
I74
aI78
asI264
(lp268
I625
aI631
asI265
(lp269
I270
aI271
asI266
(lp270
I507
aI514
asI267
(lp271
I287
aI289
asI268
(lp272
I251
aI252
asI269
(lp273
I619
aI659
asI270
(lp274
I508
aI606
asI271
(lp275
I576
aI577
asI272
(lp276
I386
aI563
asI273
(lp277
I672
aI673
asI274
(lp278
I189
aI190
asI275
(lp279
I626
aI632
asI276
(lp280
I276
aI277
asI277
(lp281
I138
aI165
asI278
(lp282
I402
aI403
asI279
(lp283
I567
aI568
asI280
(lp284
I379
aI561
asI281
(lp285
I146
aI147
asI282
(lp286
I412
aI413
asI283
(lp287
I400
aI401
asI284
(lp288
I65
aI106
asI285
(lp289
I544
aI547
asI286
(lp290
I517
aI520
asI287
(lp291
I632
aI637
asI288
(lp292
I177
aI178
asI289
(lp293
I184
aI185
asI290
(lp294
I350
aI353
asI291
(lp295
I6
aI7
asI292
(lp296
I84
aI85
asI293
(lp297
I243
aI244
asI294
(lp298
I643
aI650
asI295
(lp299
I676
aI679
asI296
(lp300
I619
aI666
asI297
(lp301
I154
aI297
asI298
(lp302
I248
aI249
asI299
(lp303
I292
aI293
asI300
(lp304
I63
aI67
asI301
(lp305
I653
aI660
asI302
(lp306
I411
aI412
asI303
(lp307
I290
aI292
asI304
(lp308
I75
aI77
asI305
(lp309
I529
aI530
asI306
(lp310
I15
aI119
asI307
(lp311
I546
aI656
asI308
(lp312
I260
aI261
asI309
(lp313
I378
aI379
asI310
(lp314
I273
aI663
asI311
(lp315
I184
aI186
asI312
(lp316
I114
aI115
asI313
(lp317
I351
aI354
asI314
(lp318
I476
aI480
asI315
(lp319
I399
aI584
asI316
(lp320
I183
aI184
asI317
(lp321
I68
aI75
asI318
(lp322
I187
aI189
asI319
(lp323
I240
aI241
asI320
(lp324
I562
aI563
asI321
(lp325
I469
aI480
asI322
(lp326
I173
aI174
asI323
(lp327
I231
aI232
asI324
(lp328
I535
aI536
asI325
(lp329
I51
aI59
asI326
(lp330
I202
aI473
asI327
(lp331
I583
aI586
asI328
(lp332
I365
aI366
asI329
(lp333
I616
aI617
asI330
(lp334
I84
aI92
asI331
(lp335
I572
aI577
asI332
(lp336
I194
aI207
asI333
(lp337
I96
aI229
asI334
(lp338
I539
aI546
asI335
(lp339
I263
aI264
asI336
(lp340
I21
aI24
asI337
(lp341
I464
aI465
asI338
(lp342
I131
aI153
asI339
(lp343
I22
aI23
asI340
(lp344
I37
aI197
asI341
(lp345
I607
aI626
asI342
(lp346
I453
aI454
asI343
(lp347
I484
aI485
asI344
(lp348
I8
aI9
asI345
(lp349
I113
aI118
asI346
(lp350
I503
aI506
asI347
(lp351
I102
aI236
asI348
(lp352
I293
aI294
asI349
(lp353
I38
aI44
asI350
(lp354
I450
aI453
asI351
(lp355
I135
aI157
asI352
(lp356
I563
aI564
asI353
(lp357
I39
aI41
asI354
(lp358
I65
aI66
asI355
(lp359
I510
aI513
asI356
(lp360
I322
aI323
asI357
(lp361
I164
aI166
asI358
(lp362
I658
aI661
asI359
(lp363
I163
aI319
asI360
(lp364
I12
aI13
asI361
(lp365
I69
aI76
asI362
(lp366
I344
aI348
asI363
(lp367
I168
aI170
asI364
(lp368
I93
aI94
asI365
(lp369
I149
aI287
asI366
(lp370
I3
aI6
asI367
(lp371
I418
aI424
asI368
(lp372
I634
aI635
asI369
(lp373
I200
aI208
asI370
(lp374
I219
aI220
asI371
(lp375
I592
aI594
asI372
(lp376
I596
aI603
asI373
(lp377
I171
aI173
asI374
(lp378
I272
aI273
asI375
(lp379
I429
aI431
asI376
(lp380
I468
aI469
asI377
(lp381
I340
aI342
asI378
(lp382
I482
aI488
asI379
(lp383
I504
aI509
asI380
(lp384
I370
aI378
asI381
(lp385
I457
aI458
asI382
(lp386
I61
aI65
asI383
(lp387
I477
aI556
asI384
(lp388
I447
aI450
asI385
(lp389
I318
aI324
asI386
(lp390
I279
aI280
asI387
(lp391
I385
aI390
asI388
(lp392
I250
aI436
asI389
(lp393
I434
aI435
asI390
(lp394
I38
aI39
asI391
(lp395
I367
aI375
asI392
(lp396
I469
aI470
asI393
(lp397
I67
aI68
asI394
(lp398
I24
aI25
asI395
(lp399
I543
aI548
asI396
(lp400
I404
aI405
asI397
(lp401
I334
aI335
asI398
(lp402
I660
aI668
asI399
(lp403
I600
aI608
asI400
(lp404
I462
aI665
asI401
(lp405
I191
aI193
asI402
(lp406
I403
aI404
asI403
(lp407
I628
aI633
asI404
(lp408
I126
aI128
asI405
(lp409
I220
aI221
asI406
(lp410
I644
aI646
asI407
(lp411
I407
aI408
asI408
(lp412
I520
aI522
asI409
(lp413
I159
aI310
asI410
(lp414
I82
aI83
asI411
(lp415
I19
aI22
asI412
(lp416
I637
aI643
asI413
(lp417
I234
aI235
asI414
(lp418
I80
aI216
asI415
(lp419
I16
aI17
asI416
(lp420
I376
aI377
asI417
(lp421
I542
aI545
asI418
(lp422
I568
aI569
asI419
(lp423
I560
aI561
asI420
(lp424
I87
aI88
asI421
(lp425
I186
aI355
asI422
(lp426
I264
aI266
asI423
(lp427
I409
aI410
asI424
(lp428
I137
aI162
asI425
(lp429
I265
aI267
asI426
(lp430
I613
aI614
asI427
(lp431
I474
aI475
asI428
(lp432
I182
aI349
asI429
(lp433
I112
aI116
asI430
(lp434
I548
aI549
asI431
(lp435
I589
aI596
asI432
(lp436
I583
aI584
asI433
(lp437
I451
aI454
asI434
(lp438
I10
aI31
asI435
(lp439
I165
aI169
asI436
(lp440
I604
aI607
asI437
(lp441
I530
aI534
asI438
(lp442
I306
aI307
asI439
(lp443
I533
aI537
asI440
(lp444
I421
aI422
asI441
(lp445
I362
aI365
asI442
(lp446
I500
aI501
asI443
(lp447
I659
aI660
asI444
(lp448
I492
aI495
asI445
(lp449
I140
aI274
asI446
(lp450
I201
aI208
asI447
(lp451
I121
aI123
asI448
(lp452
I2
aI3
asI449
(lp453
I127
aI130
asI450
(lp454
I369
aI370
asI451
(lp455
I388
aI565
asI452
(lp456
I170
aI331
asI453
(lp457
I51
aI52
asI454
(lp458
I568
aI575
asI455
(lp459
I183
aI351
asI456
(lp460
I128
aI129
asI457
(lp461
I190
aI191
asI458
(lp462
I173
aI333
asI459
(lp463
I354
aI355
asI460
(lp464
I104
aI108
asI461
(lp465
I53
aI54
asI462
(lp466
I398
aI407
asI463
(lp467
I314
aI317
asI464
(lp468
I655
aI658
asI465
(lp469
I269
aI270
asI466
(lp470
I639
aI644
asI467
(lp471
I648
aI655
asI468
(lp472
I535
aI539
asI469
(lp473
I330
aI335
asI470
(lp474
I523
aI525
asI471
(lp475
I135
aI136
asI472
(lp476
I595
aI596
asI473
(lp477
I573
aI574
asI474
(lp478
I77
aI214
asI475
(lp479
I78
aI81
asI476
(lp480
I232
aI408
asI477
(lp481
I488
aI581
asI478
(lp482
I133
aI134
asI479
(lp483
I545
aI549
asI480
(lp484
I280
aI282
asI481
(lp485
I227
aI395
asI482
(lp486
I360
aI541
asI483
(lp487
I363
aI366
asI484
(lp488
I329
aI334
asI485
(lp489
I439
aI440
asI486
(lp490
I387
aI388
asI487
(lp491
I274
aI276
asI488
(lp492
I257
aI258
asI489
(lp493
I408
aI409
asI490
(lp494
I70
aI71
asI491
(lp495
I294
aI295
asI492
(lp496
I116
aI117
asI493
(lp497
I285
aI468
asI494
(lp498
I581
aI587
asI495
(lp499
I564
aI574
asI496
(lp500
I56
aI57
asI497
(lp501
I580
aI581
asI498
(lp502
I228
aI396
asI499
(lp503
I569
aI572
asI500
(lp504
I455
aI458
asI501
(lp505
I99
aI100
asI502
(lp506
I301
aI484
asI503
(lp507
I14
aI118
asI504
(lp508
I131
aI132
asI505
(lp509
I358
aI361
asI506
(lp510
I13
aI15
asI507
(lp511
I437
aI442
asI508
(lp512
I6
aI40
asI509
(lp513
I196
aI197
asI510
(lp514
I139
aI194
asI511
(lp515
I424
aI608
asI512
(lp516
I449
aI615
asI513
(lp517
I162
aI163
asI514
(lp518
I9
aI10
asI515
(lp519
I210
aI211
asI516
(lp520
I414
aI419
asI517
(lp521
I333
aI339
asI518
(lp522
I58
aI59
asI519
(lp523
I37
aI55
asI520
(lp524
I203
aI204
asI521
(lp525
I551
aI554
asI522
(lp526
I225
aI226
asI523
(lp527
I524
aI527
asI524
(lp528
I56
aI200
asI525
(lp529
I538
aI539
asI526
(lp530
I625
aI626
asI527
(lp531
I149
aI150
asI528
(lp532
I379
aI380
asI529
(lp533
I630
aI631
asI530
(lp534
I151
aI152
asI531
(lp535
I167
aI327
asI532
(lp536
I460
aI664
asI533
(lp537
I441
aI442
asI534
(lp538
I244
aI245
asI535
(lp539
I384
aI389
asI536
(lp540
I176
aI341
asI537
(lp541
I309
aI312
asI538
(lp542
I359
aI362
asI539
(lp543
I436
aI437
asI540
(lp544
I510
aI511
asI541
(lp545
I209
aI368
asI542
(lp546
I640
aI642
asI543
(lp547
I417
aI418
asI544
(lp548
I270
aI273
asI545
(lp549
I338
aI339
asI546
(lp550
I100
aI101
asI547
(lp551
I494
aI499
asI548
(lp552
I566
aI570
asI549
(lp553
I358
aI359
asI550
(lp554
I132
aI155
asI551
(lp555
I40
aI41
asI552
(lp556
I396
aI397
asI553
(lp557
I34
aI35
asI554
(lp558
I483
aI487
asI555
(lp559
I202
aI203
asI556
(lp560
I575
aI576
asI557
(lp561
I489
aI490
asI558
(lp562
I223
aI224
asI559
(lp563
I261
aI264
asI560
(lp564
I160
aI161
asI561
(lp565
I220
aI383
asI562
(lp566
I250
aI251
asI563
(lp567
I352
aI353
asI564
(lp568
I44
aI45
asI565
(lp569
I94
aI103
asI566
(lp570
I467
aI468
asI567
(lp571
I674
aI675
asI568
(lp572
I25
aI26
asI569
(lp573
I348
aI349
asI570
(lp574
I459
aI460
asI571
(lp575
I609
aI628
asI572
(lp576
I443
aI446
asI573
(lp577
I555
aI556
asI574
(lp578
I437
aI438
asI575
(lp579
I27
aI28
asI576
(lp580
I238
aI239
asI577
(lp581
I662
aI670
asI578
(lp582
I401
aI402
asI579
(lp583
I327
aI330
asI580
(lp584
I92
aI107
asI581
(lp585
I29
aI30
asI582
(lp586
I341
aI343
asI583
(lp587
I71
aI210
asI584
(lp588
I434
aI612
asI585
(lp589
I425
aI426
asI586
(lp590
I242
aI243
asI587
(lp591
I496
aI503
asI588
(lp592
I505
aI510
asI589
(lp593
I627
aI628
asI590
(lp594
I82
aI107
asI591
(lp595
I196
aI203
asI592
(lp596
I518
aI520
asI593
(lp597
I17
aI18
asI594
(lp598
I181
aI185
asI595
(lp599
I520
aI524
asI596
(lp600
I23
aI28
asI597
(lp601
I367
aI368
asI598
(lp602
I248
aI432
asI599
(lp603
I645
aI654
asI600
(lp604
I493
aI494
asI601
(lp605
I522
aI526
asI602
(lp606
I614
aI615
asI603
(lp607
I549
aI672
asI604
(lp608
I243
aI423
asI605
(lp609
I110
aI111
asI606
(lp610
I556
aI567
asI607
(lp611
I15
aI16
asI608
(lp612
I64
aI66
asI609
(lp613
I667
aI668
asI610
(lp614
I644
aI645
asI611
(lp615
I150
aI151
asI612
(lp616
I606
aI607
asI613
(lp617
I69
aI70
asI614
(lp618
I66
aI72
asI615
(lp619
I94
aI233
asI616
(lp620
I166
aI323
asI617
(lp621
I291
aI479
asI618
(lp622
I427
aI430
asI619
(lp623
I27
aI143
asI620
(lp624
I178
aI181
asI621
(lp625
I578
aI579
asI622
(lp626
I521
aI632
asI623
(lp627
I313
aI316
asI624
(lp628
I413
aI414
asI625
(lp629
I570
aI571
asI626
(lp630
I633
aI634
asI627
(lp631
I438
aI439
asI628
(lp632
I73
aI79
asI629
(lp633
I591
aI592
asI630
(lp634
I536
aI540
asI631
(lp635
I337
aI338
asI632
(lp636
I423
aI428
asI633
(lp637
I629
aI630
asI634
(lp638
I585
aI593
asI635
(lp639
I31
aI194
asI636
(lp640
I479
aI483
asI637
(lp641
I475
aI476
asI638
(lp642
I427
aI610
asI639
(lp643
I96
aI97
asI640
(lp644
I455
aI456
asI641
(lp645
I349
aI350
asI642
(lp646
I246
aI248
asI643
(lp647
I152
aI295
asI644
(lp648
I336
aI337
asI645
(lp649
I557
aI559
asI646
(lp650
I328
aI515
asI647
(lp651
I498
aI506
asI648
(lp652
I499
aI504
asI649
(lp653
I317
aI321
asI650
(lp654
I206
aI207
asI651
(lp655
I259
aI445
asI652
(lp656
I518
aI519
asI653
(lp657
I516
aI517
asI654
(lp658
I395
aI396
asI655
(lp659
I213
aI371
asI656
(lp660
I166
aI167
asI657
(lp661
I420
aI421
asI658
(lp662
I85
aI86
asI659
(lp663
I259
aI260
asI660
(lp664
I48
aI104
asI661
(lp665
I444
aI445
asI662
(lp666
I57
aI58
asI663
(lp667
I70
aI212
asI664
(lp668
I117
aI677
asI665
(lp669
I142
aI277
asI666
(lp670
I0
aI5
asI667
(lp671
I230
aI398
asI668
(lp672
I36
aI42
asI669
(lp673
I129
aI131
asI670
(lp674
I298
aI299
asI671
(lp675
I190
aI192
asI672
(lp676
I240
aI420
asI673
(lp677
I253
aI254
asI674
(lp678
I205
aI463
asI675
(lp679
I252
aI255
asI676
(lp680
I158
aI159
asI677
(lp681
I275
aI278
asI678
(lp682
I212
aI213
asI679
(lp683
I246
aI247
asI680
(lp684
I448
aI451
asI681
(lp685
I457
aI618
asI682
(lp686
I241
aI242
asI683
(lp687
I296
aI302
asI684
(lp688
I629
aI635
asI685
(lp689
I669
aI670
asI686
(lp690
I139
aI140
asI687
(lp691
I60
aI105
asI688
(lp692
I363
aI675
asI689
(lp693
I120
aI121
asI690
(lp694
I594
aI595
asI691
(lp695
I630
aI636
asI692
(lp696
I47
aI48
asI693
(lp697
I82
aI84
asI694
(lp698
I352
aI534
asI695
(lp699
I531
aI533
asI696
(lp700
I381
aI382
asI697
(lp701
I147
aI284
asI698
(lp702
I244
aI246
asI699
(lp703
I132
aI133
asI700
(lp704
I497
aI587
asI701
(lp705
I573
aI586
asI702
(lp706
I472
aI474
asI703
(lp707
I0
aI113
asI704
(lp708
I641
aI643
asI705
(lp709
I126
aI127
asI706
(lp710
I353
aI356
asI707
(lp711
I86
aI220
asI708
(lp712
I218
aI219
asI709
(lp713
I663
aI678
asI710
(lp714
I577
aI591
asI711
(lp715
I43
aI44
asI712
(lp716
I251
aI253
asI713
(lp717
I161
aI162
asI714
(lp718
I360
aI361
asI715
(lp719
I648
aI649
asI716
(lp720
I299
aI305
asI717
(lp721
I463
aI472
asI718
(lp722
I45
aI46
asI719
(lp723
I291
aI292
asI720
(lp724
I90
aI226
asI721
(lp725
I461
aI462
asI722
(lp726
I603
aI623
asI723
(lp727
I561
aI566
asI724
(lp728
I204
aI471
asI725
(lp729
I391
aI392
asI726
(lp730
I649
aI652
asI727
(lp731
I370
aI371
asI728
(lp732
I177
aI179
asI729
(lp733
I118
aI119
asI730
(lp734
I440
aI444
asI731
(lp735
I375
aI376
asI732
(lp736
I256
aI440
asI733
(lp737
I501
aI505
asI734
(lp738
I666
aI667
asI735
(lp739
I104
aI105
asI736
(lp740
I460
aI462
asI737
(lp741
I535
aI544
asI738
(lp742
I320
aI321
asI739
(lp743
I236
aI412
asI740
(lp744
I31
aI32
asI741
(lp745
I185
aI188
asI742
(lp746
I35
aI37
asI743
(lp747
I569
aI570
asI744
(lp748
I278
aI279
asI745
(lp749
I186
aI187
asI746
(lp750
I36
aI38
asI747
(lp751
I330
aI331
asI748
(lp752
I593
aI597
asI749
(lp753
I148
aI149
asI750
(lp754
I671
aI672
asI751
(lp755
I474
aI477
asI752
(lp756
I266
aI268
asI753
(lp757
I77
aI80
asI754
(lp758
I602
aI620
asI755
(lp759
I89
aI90
asI756
(lp760
I549
aI550
asI757
(lp761
I432
aI436
asI758
(lp762
I91
aI92
asI759
(lp763
I546
aI547
asI760
(lp764
I627
aI629
asI761
(lp765
I635
aI640
asI762
(lp766
I513
aI514
asI763
(lp767
I150
aI290
asI764
(lp768
I495
aI498
asI765
(lp769
I214
aI215
asI766
(lp770
I98
aI242
asI767
(lp771
I229
aI230
asI768
(lp772
I375
aI552
asI769
(lp773
I293
aI301
asI770
(lp774
I137
aI138
asI771
(lp775
I389
aI399
asI772
(lp776
I318
aI319
asI773
(lp777
I374
aI381
asI774
(lp778
I316
aI320
asI775
(lp779
I431
aI435
asI776
(lp780
I62
aI71
asI777
(lp781
I263
aI265
asI778
(lp782
I176
aI177
asI779
(lp783
I309
aI310
asI780
(lp784
I268
aI271
asI781
(lp785
I102
aI103
asI782
(lp786
I8
aI34
asI783
(lp787
I141
aI142
asI784
(lp788
I659
aI667
asI785
(lp789
I532
aI535
asI786
(lp790
I88
aI89
asI787
(lp791
I372
aI373
asI788
(lp792
I646
aI649
asI789
(lp793
I412
aI417
asI790
(lp794
I575
aI579
asI791
(lp795
I451
aI452
asI792
(lp796
I267
aI268
asI793
(lp797
I415
aI416
asI794
(lp798
I169
aI172
asI795
(lp799
I219
aI381
asI796
(lp800
I222
aI385
asI797
(lp801
I338
aI342
asI798
(lp802
I170
aI171
asI799
(lp803
I269
aI456
asI800
(lp804
I226
aI393
asI801
(lp805
I164
aI165
asI802
(lp806
I366
aI548
asI803
(lp807
I277
aI279
asI804
(lp808
I550
aI671
asI805
(lp809
I168
aI169
asI806
(lp810
I419
aI425
asI807
(lp811
I94
aI95
asI808
(lp812
I50
aI60
asI809
(lp813
I83
aI86
asI810
(lp814
I42
aI43
asI811
(lp815
I258
aI261
asI812
(lp816
I1
aI11
asI813
(lp817
I383
aI384
asI814
(lp818
I80
aI81
asI815
(lp819
I122
aI127
asI816
(lp820
I623
aI624
asI817
(lp821
I390
aI391
asI818
(lp822
I558
aI560
asI819
(lp823
I340
aI341
asI820
(lp824
I204
aI205
asI821
(lp825
I235
aI236
asI822
(lp826
I493
aI496
asI823
(lp827
I253
aI438
asI824
(lp828
I228
aI229
asI825
(lp829
I304
aI305
asI826
(lp830
I571
aI574
asI827
(lp831
I361
aI364
asI828
(lp832
I155
aI156
asI829
(lp833
I34
aI36
asI830
(lp834
I598
aI599
asI831
(lp835
I471
aI473
asI832
(lp836
I462
aI619
asI833
(lp837
I256
aI257
asI834
(lp838
I284
aI287
asI835
(lp839
I130
aI134
asI836
(lp840
I587
aI606
asI837
(lp841
I285
aI286
asI838
(lp842
I32
aI139
asI839
(lp843
I526
aI527
asI840
(lp844
I582
aI588
asI841
(lp845
I550
aI662
asI842
(lp846
I447
aI448
asI843
(lp847
I580
aI582
asI844
(lp848
I0
aI1
asI845
(lp849
I278
aI281
asI846
(lp850
I331
aI332
asI847
(lp851
I444
aI446
asI848
(lp852
I288
aI470
asI849
(lp853
I239
aI240
asI850
(lp854
I636
aI641
asI851
(lp855
I638
aI639
asI852
(lp856
I343
aI344
asI853
(lp857
I192
aI363
asI854
(lp858
I473
aI551
asI855
(lp859
I215
aI372
asI856
(lp860
I373
aI374
asI857
(lp861
I369
aI376
asI858
(lp862
I207
aI274
asI859
(lp863
I174
aI175
asI860
(lp864
I601
aI602
asI861
(lp865
I199
aI200
asI862
(lp866
I22
aI32
asI863
(lp867
I526
aI637
asI864
(lp868
I471
aI472
asI865
(lp869
I454
aI457
asI866
(lp870
I406
aI407
asI867
(lp871
I197
aI198
asI868
(lp872
I366
aI674
asI869
(lp873
I488
aI489
asI870
(lp874
I33
aI35
asI871
(lp875
I324
aI507
asI872
(lp876
I76
aI77
asI873
(lp877
I55
aI198
asI874
(lp878
I531
aI532
asI875
(lp879
I534
aI536
asI876
(lp880
I47
aI108
asI877
(lp881
I25
aI30
asI878
(lp882
I302
aI303
asI879
(lp883
I640
aI646
asI880
(lp884
I511
aI516
asI881
(lp885
I303
aI486
asI882
(lp886
I101
aI102
asI883
(lp887
I611
aI612
asI884
(lp888
I603
aI605
asI885
(lp889
I554
aI557
asI886
(lp890
I347
aI352
asI887
(lp891
I497
aI498
asI888
(lp892
I430
aI433
asI889
(lp893
I97
aI227
asI890
(lp894
I52
aI54
asI891
(lp895
I551
aI552
asI892
(lp896
I654
aI659
asI893
(lp897
I458
aI461
asI894
(lp898
I53
aI55
asI895
(lp899
I394
aI403
asI896
(lp900
I101
aI237
asI897
(lp901
I480
aI487
asI898
(lp902
I608
aI609
asI899
(lp903
I73
aI74
asI900
(lp904
I579
aI580
asI901
(lp905
I615
aI616
asI902
(lp906
I466
aI467
asI903
(lp907
I324
aI325
asI904
(lp908
I18
aI21
asI905
(lp909
I23
aI24
asI906
(lp910
I642
aI647
asI907
(lp911
I521
aI522
asI908
(lp912
I422
aI423
asI909
(lp913
I260
aI262
asI910
(lp914
I567
aI578
asI911
(lp915
I213
aI214
asI912
(lp916
I7
aI8
asI913
(lp917
I312
aI315
asI914
(lp918
I133
aI135
asI915
(lp919
I300
aI307
asI916
(lp920
I390
aI400
asI917
(lp921
I67
aI72
asI918
(lp922
I576
aI582
asI919
(lp923
I481
aI482
asI920
(lp924
I516
aI521
asI921
(lp925
I588
aI589
asI922
(lp926
I62
aI63
asI923
(lp927
I187
aI188
asI924
(lp928
I188
aI191
asI925
(lp929
I257
aI259
asI926
(lp930
I41
aI110
asI927
(lp931
I638
aI640
asI928
(lp932
I182
aI183
asI929
(lp933
I317
aI318
asI930
(lp934
I83
aI218
asI931
(lp935
I380
aI386
asI932
(lp936
I311
aI312
asI933
(lp937
I98
aI99
asI934
(lp938
I81
aI217
asI935
(lp939
I103
aI235
asI936
(lp940
I106
aI107
asI937
(lp941
I95
aI96
asI938
(lp942
I528
aI529
asI939
(lp943
I224
aI225
asI940
(lp944
I552
aI558
asI941
(lp945
I87
aI222
asI942
(lp946
I356
aI540
asI943
(lp947
I9
aI33
asI944
(lp948
I275
aI464
asI945
(lp949
I11
aI12
asI946
(lp950
I114
aI677
asI947
(lp951
I305
aI491
asI948
(lp952
I614
aI639
asI949
(lp953
I179
aI344
asI950
(lp954
I281
aI466
asI951
(lp955
I435
aI441
asI952
(lp956
I413
aI418
asI953
(lp957
I489
aI497
asI954
(lp958
I303
aI304
asI955
(lp959
I343
aI345
asI956
(lp960
I411
aI416
asI957
(lp961
I48
aI49
asI958
(lp962
I597
aI598
asI959
(lp963
I272
aI678
asI960
(lp964
I120
aI144
asI961
(lp965
I342
aI345
asI962
(lp966
I670
aI671
asI963
(lp967
I254
aI255
asI964
(lp968
I401
aI585
asI965
(lp969
I265
aI452
asI966
(lp970
I502
aI507
asI967
(lp971
I200
aI209
asI968
(lp972
I26
aI27
asI969
(lp973
I459
aI461
asI970
(lp974
I537
aI643
asI971
(lp975
I171
aI172
asI972
(lp976
I288
aI289
asI973
(lp977
I368
aI369
asI974
(lp978
I232
aI233
asI975
(lp979
I172
aI175
asI976
(lp980
I33
aI195
asI977
(lp981
I57
aI62
asI978
(lp982
I405
aI406
asI979
(lp983
I594
aI601
asI980
(lp984
I301
aI302
asI981
(lp985
I295
aI296
asI982
(lp986
I238
aI414
asI983
(lp987
I675
aI676
asI984
(lp988
I13
aI14
asI985
(lp989
I415
aI598
asI986
(lp990
I315
aI500
asI987
(lp991
I392
aI402
asI988
(lp992
I547
aI550
asI989
(lp993
I234
aI410
asI990
(lp994
I541
aI542
asI991
(lp995
I156
aI300
asI992
(lp996
I647
aI648
asI993
(lp997
I326
aI329
asI994
(lp998
I524
aI525
asI995
(lp999
I10
aI11
asI996
(lp1000
I604
aI605
asI997
(lp1001
I422
aI427
asI998
(lp1002
I562
aI571
asI999
(lp1003
I555
aI559
asI1000
(lp1004
I46
aI109
asI1001
(lp1005
I342
aI528
asI1002
(lp1006
I136
aI137
asI1003
(lp1007
I189
aI359
asI1004
(lp1008
I477
aI478
asI1005
(lp1009
I465
aI466
asI1006
(lp1010
I612
aI613
asI1007
(lp1011
I322
aI325
asI1008
(lp1012
I159
aI160
asI1009
(lp1013
I397
aI405
asI1010
(lp1014
I1
aI2
asI1011
(lp1015
I121
aI122
asI1012
(lp1016
I30
aI122
asI1013
(lp1017
I442
aI443
asI1014
(lp1018
I2
aI9
asI1015
(lp1019
I140
aI141
asI1016
(lp1020
I158
aI308
asI1017
(lp1021
I586
aI592
asI1018
(lp1022
I350
aI351
asI1019
(lp1023
I217
aI218
asI1020
(lp1024
I124
aI125
asI1021
(lp1025
I93
aI98
asI1022
(lp1026
I28
aI141
asI1023
(lp1027
I404
aI593
asI1024
(lp1028
I495
aI496
asI1025
(lp1029
I480
aI482
asI1026
(lp1030
I491
aI493
asI1027
(lp1031
I449
aI450
asI1028
(lp1032
I289
aI291
asI1029
(lp1033
I41
aI46
asI1030
(lp1034
I95
aI231
asI1031
(lp1035
I221
aI222
asI1032
(lp1036
I611
aI633
asI1033
(lp1037
I265
aI266
asI1034
(lp1038
I78
aI79
asI1035
(lp1039
I364
aI543
asI1036
(lp1040
I421
aI426
asI1037
(lp1041
I354
aI357
asI1038
(lp1042
I565
aI583
asI1039
(lp1043
I663
aI664
asI1040
(lp1044
I209
aI210
asI1041
(lp1045
I233
aI234
asI1042
(lp1046
I310
aI313
asI1043
(lp1047
I664
aI665
asI1044
(lp1048
I230
aI231
asI1045
(lp1049
I339
aI340
asI1046
(lp1050
I397
aI398
asI1047
(lp1051
I635
aI636
asI1048
(lp1052
I485
aI492
asI1049
(lp1053
I337
aI523
asI1050
(lp1054
I85
aI221
asI1051
(lp1055
I152
aI153
asI1052
(lp1056
I236
aI237
asI1053
(lp1057
I651
aI656
asI1054
(lp1058
I661
aI662
asI1055
(lp1059
I631
aI632
asI1056
(lp1060
I386
aI387
asI1057
(lp1061
I656
aI657
asI1058
(lp1062
I123
aI124
asI1059
(lp1063
I282
aI285
asI1060
(lp1064
I553
aI554
astp1065
Rp1066
(dp1067
S'scale'
p1068
I1
sS'description'
p1069
S''
p1070
sb.