ccopy_reg
_reconstructor
p0
(ccelltissue.serial.io_property
IOAbstractProperty
p1
c__builtin__
dict
p2
(dp3
I0
Vpath4070
p4
sI1
Vpath5059
p5
sI2
Vpath5061
p6
sI3
Vpath5063
p7
sI4
Vpath5065
p8
sI5
Vpath5067
p9
sI6
Vpath5069
p10
sI7
Vpath5071
p11
sI8
Vpath5073
p12
sI9
Vpath5075
p13
sI10
Vpath5077
p14
sI11
Vpath5079
p15
sI12
Vpath5081
p16
sI13
Vpath5083
p17
sI14
Vpath5085
p18
sI15
Vpath5087
p19
sI16
Vpath5089
p20
sI17
Vpath5091
p21
sI18
Vpath5093
p22
sI19
Vpath5095
p23
sI20
Vpath5097
p24
sI21
Vpath5099
p25
sI22
Vpath5101
p26
sI23
Vpath5103
p27
sI24
Vpath5105
p28
sI25
Vpath5107
p29
sI26
Vpath5109
p30
sI27
Vpath5111
p31
sI28
Vpath5113
p32
sI29
Vpath5115
p33
sI30
Vpath5117
p34
sI31
Vpath5119
p35
sI32
Vpath5121
p36
sI33
Vpath5123
p37
sI34
Vpath5125
p38
sI35
Vpath5127
p39
sI36
Vpath5129
p40
sI37
Vpath5131
p41
sI38
Vpath5133
p42
sI39
Vpath5135
p43
sI40
Vpath5137
p44
sI41
Vpath5139
p45
sI42
Vpath5141
p46
sI43
Vpath5143
p47
sI44
Vpath5145
p48
sI45
Vpath5147
p49
sI46
Vpath5149
p50
sI47
Vpath5151
p51
sI48
Vpath5153
p52
sI49
Vpath5155
p53
sI50
Vpath5157
p54
sI51
Vpath5159
p55
sI52
Vpath5161
p56
sI53
Vpath5163
p57
sI54
Vpath5165
p58
sI55
Vpath5167
p59
sI56
Vpath5169
p60
sI57
Vpath5171
p61
sI58
Vpath5173
p62
sI59
Vpath5175
p63
sI60
Vpath5177
p64
sI61
Vpath5179
p65
sI62
Vpath5181
p66
sI63
Vpath5183
p67
sI64
Vpath5185
p68
sI65
Vpath5187
p69
sI66
Vpath5189
p70
sI67
Vpath5191
p71
sI68
Vpath5193
p72
sI69
Vpath5195
p73
sI70
Vpath5197
p74
sI71
Vpath5199
p75
sI72
Vpath5201
p76
sI73
Vpath5203
p77
sI74
Vpath5205
p78
sI75
Vpath5207
p79
sI76
Vpath5209
p80
sI77
Vpath5211
p81
sI78
Vpath5213
p82
sI79
Vpath5215
p83
sI80
Vpath5217
p84
sI81
Vpath5219
p85
sI82
Vpath5221
p86
sI83
Vpath5223
p87
sI84
Vpath5225
p88
sI85
Vpath5227
p89
sI86
Vpath5229
p90
sI87
Vpath5231
p91
sI88
Vpath5233
p92
sI89
Vpath5235
p93
sI90
Vpath5237
p94
sI91
Vpath5239
p95
sI92
Vpath5241
p96
sI93
Vpath5243
p97
sI94
Vpath5245
p98
sI95
Vpath5247
p99
sI96
Vpath5249
p100
sI97
Vpath5251
p101
sI98
Vpath5253
p102
sI99
Vpath5255
p103
sI100
Vpath5257
p104
sI101
Vpath5259
p105
sI102
Vpath5261
p106
sI103
Vpath5263
p107
sI104
Vpath5265
p108
sI105
Vpath5267
p109
sI106
Vpath5269
p110
sI107
Vpath5271
p111
sI108
Vpath5273
p112
sI109
Vpath5275
p113
sI110
Vpath5277
p114
sI111
Vpath5279
p115
sI112
Vpath5281
p116
sI113
Vpath5283
p117
sI114
Vpath5285
p118
sI115
Vpath5287
p119
sI116
Vpath5289
p120
sI117
Vpath5291
p121
sI118
Vpath5293
p122
sI119
Vpath5295
p123
sI120
Vpath5297
p124
sI121
Vpath5299
p125
sI122
Vpath5301
p126
sI123
Vpath5303
p127
sI124
Vpath5305
p128
sI125
Vpath5307
p129
sI126
Vpath5309
p130
sI127
Vpath5311
p131
sI128
Vpath5313
p132
sI129
Vpath5315
p133
sI130
Vpath5317
p134
sI131
Vpath5319
p135
sI132
Vpath5321
p136
sI133
Vpath5323
p137
sI134
Vpath5325
p138
sI135
Vpath5327
p139
sI136
Vpath5329
p140
sI137
Vpath5331
p141
sI138
Vpath5333
p142
sI139
Vpath5335
p143
sI140
Vpath5337
p144
sI141
Vpath5339
p145
sI142
Vpath5341
p146
sI143
Vpath5343
p147
sI144
Vpath5345
p148
sI145
Vpath5347
p149
sI146
Vpath5349
p150
sI147
Vpath5351
p151
sI148
Vpath5353
p152
sI149
Vpath5355
p153
sI150
Vpath5357
p154
sI151
Vpath5359
p155
sI152
Vpath5361
p156
sI153
Vpath5363
p157
sI154
Vpath5365
p158
sI155
Vpath5367
p159
sI156
Vpath5369
p160
sI157
Vpath5371
p161
sI158
Vpath5373
p162
sI159
Vpath5375
p163
sI160
Vpath5377
p164
sI161
Vpath5379
p165
sI162
Vpath5381
p166
sI163
Vpath5383
p167
sI164
Vpath5385
p168
sI165
Vpath5387
p169
sI166
Vpath5389
p170
sI167
Vpath5391
p171
sI168
Vpath5393
p172
sI169
Vpath5395
p173
sI170
Vpath5397
p174
sI171
Vpath5399
p175
sI172
Vpath5401
p176
sI173
Vpath5403
p177
sI174
Vpath5405
p178
sI175
Vpath5407
p179
sI176
Vpath5409
p180
sI177
Vpath5411
p181
sI178
Vpath5413
p182
sI179
Vpath5415
p183
sI180
Vpath5417
p184
sI181
Vpath5419
p185
sI182
Vpath5421
p186
sI183
Vpath5423
p187
sI184
Vpath5425
p188
sI185
Vpath5427
p189
sI186
Vpath5429
p190
sI187
Vpath5431
p191
sI188
Vpath5433
p192
sI189
Vpath5435
p193
sI190
Vpath5437
p194
sI191
Vpath5439
p195
sI192
Vpath5441
p196
sI193
Vpath5443
p197
sI194
Vpath5445
p198
sI195
Vpath5447
p199
sI196
Vpath5449
p200
sI197
Vpath5451
p201
sI198
Vpath5453
p202
sI199
Vpath5455
p203
sI200
Vpath5457
p204
sI201
Vpath5459
p205
sI202
Vpath5461
p206
sI203
Vpath5463
p207
sI204
Vpath5465
p208
sI205
Vpath5467
p209
sI206
Vpath5469
p210
sI207
Vpath5471
p211
sI208
Vpath5473
p212
sI209
Vpath5475
p213
sI210
Vpath5477
p214
sI211
Vpath5479
p215
sI212
Vpath5481
p216
sI213
Vpath5483
p217
sI214
Vpath5485
p218
sI215
Vpath5487
p219
sI216
Vpath5489
p220
sI217
Vpath5491
p221
sI218
Vpath5493
p222
sI219
Vpath5495
p223
sI220
Vpath5497
p224
sI221
Vpath5499
p225
sI222
Vpath5501
p226
sI223
Vpath5503
p227
sI224
Vpath5505
p228
sI225
Vpath5507
p229
sI226
Vpath5509
p230
sI227
Vpath5511
p231
sI228
Vpath5513
p232
sI229
Vpath5515
p233
sI230
Vpath5517
p234
sI231
Vpath5519
p235
sI232
Vpath5521
p236
sI233
Vpath5523
p237
sI234
Vpath5525
p238
sI235
Vpath5527
p239
sI236
Vpath5529
p240
sI237
Vpath5531
p241
sI238
Vpath5533
p242
sI239
Vpath5535
p243
sI240
Vpath5537
p244
sI241
Vpath5539
p245
sI242
Vpath5541
p246
sI243
Vpath5543
p247
sI244
Vpath5545
p248
sI245
Vpath5547
p249
sI246
Vpath5549
p250
sI247
Vpath5551
p251
sI248
Vpath5553
p252
sI249
Vpath5555
p253
sI250
Vpath5557
p254
sI251
Vpath5559
p255
sI252
Vpath5561
p256
sI253
Vpath5563
p257
sI254
Vpath5565
p258
sI255
Vpath5567
p259
sI256
Vpath5569
p260
sI257
Vpath5571
p261
sI258
Vpath5573
p262
sI259
Vpath5575
p263
sI260
Vpath5577
p264
sI261
Vpath5579
p265
sI262
Vpath5581
p266
sI263
Vpath5583
p267
sI264
Vpath5585
p268
sI265
Vpath5587
p269
sI266
Vpath5589
p270
sI267
Vpath5591
p271
sI268
Vpath5593
p272
sI269
Vpath5595
p273
sI270
Vpath5597
p274
sI271
Vpath5599
p275
sI272
Vpath5601
p276
sI273
Vpath5603
p277
sI274
Vpath5605
p278
sI275
Vpath5607
p279
sI276
Vpath5609
p280
sI277
Vpath5611
p281
sI278
Vpath5613
p282
sI279
Vpath5615
p283
sI280
Vpath5617
p284
sI281
Vpath5619
p285
sI282
Vpath5621
p286
sI283
Vpath5623
p287
sI284
Vpath5625
p288
sI285
Vpath5627
p289
sI286
Vpath5629
p290
sI287
Vpath5631
p291
sI288
Vpath5633
p292
sI289
Vpath5635
p293
sI290
Vpath5637
p294
sI291
Vpath5639
p295
sI292
Vpath5641
p296
sI293
Vpath5643
p297
sI294
Vpath5645
p298
sI295
Vpath5647
p299
sI296
Vpath5649
p300
sI297
Vpath5651
p301
sI298
Vpath5653
p302
sI299
Vpath5655
p303
sI300
Vpath5657
p304
sI301
Vpath5659
p305
sI302
Vpath5661
p306
sI303
Vpath5663
p307
sI304
Vpath5665
p308
sI305
Vpath5667
p309
sI306
Vpath5669
p310
sI307
Vpath5671
p311
sI308
Vpath5673
p312
sI309
Vpath5675
p313
sI310
Vpath5677
p314
sI311
Vpath5679
p315
sI312
Vpath5681
p316
sI313
Vpath5683
p317
sI314
Vpath5685
p318
sI315
Vpath5687
p319
sI316
Vpath5689
p320
sI317
Vpath5691
p321
sI318
Vpath5693
p322
sI319
Vpath5695
p323
sI320
Vpath5697
p324
sI321
Vpath5699
p325
sI322
Vpath5701
p326
sI323
Vpath5703
p327
sI324
Vpath5705
p328
sI325
Vpath5707
p329
sI326
Vpath5709
p330
sI327
Vpath5711
p331
sI328
Vpath5713
p332
sI329
Vpath5715
p333
sI330
Vpath5717
p334
sI331
Vpath5719
p335
sI332
Vpath5721
p336
sI333
Vpath5723
p337
sI334
Vpath5725
p338
sI335
Vpath5727
p339
sI336
Vpath5729
p340
sI337
Vpath5731
p341
sI338
Vpath5733
p342
sI339
Vpath5735
p343
sI340
Vpath5737
p344
sI341
Vpath5739
p345
sI342
Vpath5741
p346
sI343
Vpath5743
p347
sI344
Vpath5745
p348
sI345
Vpath5747
p349
sI346
Vpath5749
p350
sI347
Vpath5751
p351
sI348
Vpath5753
p352
sI349
Vpath5755
p353
sI350
Vpath5757
p354
sI351
Vpath5759
p355
sI352
Vpath5761
p356
sI353
Vpath5763
p357
sI354
Vpath5765
p358
sI355
Vpath5767
p359
sI356
Vpath5769
p360
sI357
Vpath5771
p361
sI358
Vpath5773
p362
sI359
Vpath5775
p363
sI360
Vpath5777
p364
sI361
Vpath5779
p365
sI362
Vpath5781
p366
sI363
Vpath5783
p367
sI364
Vpath5785
p368
sI365
Vpath5787
p369
sI366
Vpath5789
p370
sI367
Vpath3484
p371
sI368
Vpath3486
p372
sI369
Vpath3488
p373
sI370
Vpath3490
p374
sI371
Vpath3492
p375
sI372
Vpath3494
p376
sI373
Vpath3496
p377
sI374
Vpath3498
p378
sI375
Vpath3500
p379
sI376
Vpath3502
p380
sI377
Vpath3504
p381
sI378
Vpath3506
p382
sI379
Vpath3508
p383
sI380
Vpath3510
p384
sI381
Vpath3512
p385
stp386
Rp387
(dp388
S'description'
p389
S"#type : <class 'celltissue.data.tissue_property.TissueProperty'>\n\n"
p390
sb.