ccopy_reg
_reconstructor
p0
(ccelltissue.serial.io_property
IOAbstractProperty
p1
c__builtin__
dict
p2
(dp3
I2
(I213
I326
tp4
sI4
(I55
I65
tp5
sI7
(I256
I253
tp6
sI8
(I5
I7
tp7
sI9
(I204
I203
tp8
sI10
(I323
I311
tp9
sI12
(I320
I315
tp10
sI14
(I185
I181
tp11
sI15
(I100
I101
tp12
sI19
(I268
I266
tp13
sI31
(I216
I214
tp14
sI32
(I338
I334
tp15
sI33
(I333
I320
tp16
sI34
(I267
I268
tp17
sI37
(I64
I65
tp18
sI39
(I262
I324
tp19
sI40
(I153
I261
tp20
sI44
(I278
I275
tp21
sI49
(I251
I254
tp22
sI50
(I242
I241
tp23
sI52
(I173
I281
tp24
sI53
(I24
I26
tp25
sI57
(I207
I319
tp26
sI68
(I273
I275
tp27
sI69
(I304
I303
tp28
sI70
(I294
I293
tp29
sI72
(I134
I238
tp30
sI74
(I188
I184
tp31
sI75
(I228
I226
tp32
sI76
(I218
I217
tp33
sI80
(I360
I356
tp34
sI82
(I217
I215
tp35
sI84
(I261
I257
tp36
sI86
(I363
I358
tp37
sI87
(I218
I327
tp38
sI88
(I6
I9
tp39
sI89
(I244
I249
tp40
sI90
(I110
I111
tp41
sI91
(I270
I267
tp42
sI93
(I290
I292
tp43
sI94
(I327
I343
tp44
sI100
(I92
I93
tp45
sI103
(I245
I242
tp46
sI106
(I62
I63
tp47
sI112
(I288
I87
tp48
sI113
(I19
I24
tp49
sI117
(I195
I308
tp50
sI119
(I65
I66
tp51
sI120
(I364
I359
tp52
sI121
(I150
I148
tp53
sI123
(I235
I88
tp54
sI126
(I325
I319
tp55
sI128
(I76
I77
tp56
sI130
(I313
I300
tp57
sI132
(I53
I6
tp58
sI134
(I225
I223
tp59
sI136
(I82
I11
tp60
sI137
(I351
I346
tp61
sI138
(I340
I336
tp62
sI142
(I206
I205
tp63
sI144
(I329
I328
tp64
sI147
(I334
I321
tp65
sI149
(I373
I364
tp66
sI150
(I161
I160
tp67
sI151
(I147
I253
tp68
sI152
(I342
I263
tp69
sI153
(I156
I265
tp70
sI155
(I144
I253
tp71
sI158
(I166
I274
tp72
sI159
(I308
I315
tp73
sI163
(I364
I358
tp74
sI166
(I131
I129
tp75
sI168
(I338
I333
tp76
sI176
(I270
I271
tp77
sI177
(I281
I283
tp78
sI178
(I295
I299
tp79
sI182
(I35
I36
tp80
sI183
(I111
I112
tp81
sI187
(I53
I9
tp82
sI188
(I317
I312
tp83
sI190
(I342
I337
tp84
sI192
(I297
I291
tp85
sI196
(I191
I190
tp86
sI198
(I322
I311
tp87
sI200
(I101
I102
tp88
sI201
(I134
I132
tp89
sI202
(I143
I142
tp90
sI203
(I287
I283
tp91
sI204
(I331
I330
tp92
sI206
(I88
I83
tp93
sI207
(I63
I64
tp94
sI208
(I361
I356
tp95
sI209
(I126
I235
tp96
sI212
(I365
I360
tp97
sI216
(I205
I318
tp98
sI217
(I277
I274
tp99
sI218
(I56
I57
tp100
sI220
(I246
I243
tp101
sI223
(I69
I70
tp102
sI224
(I128
I126
tp103
sI225
(I361
I357
tp104
sI227
(I332
I362
tp105
sI231
(I339
I334
tp106
sI232
(I160
I270
tp107
sI233
(I169
I166
tp108
sI236
(I189
I307
tp109
sI237
(I356
I350
tp110
sI239
(I252
I250
tp111
sI241
(I27
I30
tp112
sI242
(I189
I188
tp113
sI244
(I227
I329
tp114
sI245
(I340
I334
tp115
sI249
(I362
I353
tp116
sI250
(I88
I82
tp117
sI254
(I89
I87
tp118
sI255
(I80
I381
tp119
sI259
(I179
I178
tp120
sI260
(I14
I15
tp121
sI265
(I123
I124
tp122
sI266
(I265
I264
tp123
sI267
(I136
I134
tp124
sI268
(I116
I117
tp125
sI269
(I371
I362
tp126
sI270
(I337
I324
tp127
sI271
(I312
I301
tp128
sI272
(I296
I295
tp129
sI278
(I197
I314
tp130
sI279
(I302
I298
tp131
sI280
(I295
I294
tp132
sI283
(I196
I308
tp133
sI284
(I39
I40
tp134
sI285
(I287
I284
tp135
sI288
(I75
I76
tp136
sI289
(I77
I78
tp137
sI290
(I171
I169
tp138
sI291
(I1
I15
tp139
sI292
(I34
I35
tp140
sI297
(I140
I139
tp141
sI298
(I115
I116
tp142
sI299
(I137
I247
tp143
sI303
(I137
I136
tp144
sI304
(I30
I32
tp145
sI306
(I52
I53
tp146
sI307
(I366
I361
tp147
sI308
(I119
I120
tp148
sI309
(I184
I294
tp149
sI315
(I308
I307
tp150
sI321
(I249
I245
tp151
sI324
(I283
I278
tp152
sI327
(I315
I309
tp153
sI328
(I176
I285
tp154
sI329
(I331
I353
tp155
sI330
(I41
I35
tp156
sI331
(I313
I301
tp157
sI332
(I125
I88
tp158
sI333
(I104
I105
tp159
sI335
(I120
I121
tp160
sI337
(I236
I241
tp161
sI338
(I66
I67
tp162
sI343
(I248
I252
tp163
sI344
(I12
I1
tp164
sI346
(I262
I260
tp165
sI347
(I108
I109
tp166
sI348
(I141
I137
tp167
sI349
(I16
I17
tp168
sI350
(I229
I330
tp169
sI351
(I68
I69
tp170
sI352
(I296
I306
tp171
sI359
(I152
I150
tp172
sI360
(I3
I4
tp173
sI364
(I36
I37
tp174
sI365
(I135
I133
tp175
sI366
(I1
I46
tp176
sI367
(I211
I325
tp177
sI368
(I349
I344
tp178
sI369
(I177
I89
tp179
sI374
(I124
I367
tp180
sI376
(I238
I245
tp181
sI377
(I165
I163
tp182
sI379
(I263
I262
tp183
sI380
(I184
I183
tp184
sI383
(I303
I290
tp185
sI384
(I229
I227
tp186
sI385
(I154
I153
tp187
sI388
(I220
I219
tp188
sI389
(I218
I328
tp189
sI391
(I182
I288
tp190
sI395
(I285
I286
tp191
sI399
(I325
I338
tp192
sI402
(I198
I314
tp193
sI406
(I358
I354
tp194
sI408
(I272
I269
tp195
sI409
(I148
I146
tp196
sI410
(I33
I34
tp197
sI411
(I10
I7
tp198
sI414
(I94
I95
tp199
sI415
(I4
I6
tp200
sI416
(I183
I293
tp201
sI417
(I286
I283
tp202
sI418
(I301
I298
tp203
sI419
(I294
I297
tp204
sI421
(I172
I170
tp205
sI424
(I70
I71
tp206
sI426
(I329
I348
tp207
sI427
(I243
I241
tp208
sI428
(I168
I167
tp209
sI430
(I377
I286
tp210
sI431
(I322
I317
tp211
sI433
(I231
I229
tp212
sI436
(I336
I323
tp213
sI437
(I277
I278
tp214
sI438
(I147
I144
tp215
sI439
(I279
I352
tp216
sI441
(I176
I175
tp217
sI442
(I257
I259
tp218
sI443
(I372
I363
tp219
sI444
(I254
I255
tp220
sI445
(I127
I125
tp221
sI451
(I307
I296
tp222
sI452
(I158
I157
tp223
sI455
(I170
I168
tp224
sI456
(I56
I66
tp225
sI457
(I79
I80
tp226
sI458
(I162
I158
tp227
sI464
(I364
I360
tp228
sI468
(I284
I279
tp229
sI469
(I160
I159
tp230
sI470
(I275
I271
tp231
sI471
(I58
I69
tp232
sI472
(I321
I317
tp233
sI473
(I309
I300
tp234
sI474
(I93
I94
tp235
sI475
(I32
I33
tp236
sI476
(I201
I200
tp237
sI477
(I310
I304
tp238
sI478
(I57
I58
tp239
sI480
(I132
I130
tp240
sI481
(I193
I192
tp241
sI482
(I282
I281
tp242
sI484
(I159
I267
tp243
sI486
(I189
I296
tp244
sI488
(I118
I119
tp245
sI493
(I238
I237
tp246
sI495
(I309
I306
tp247
sI497
(I311
I304
tp248
sI498
(I194
I193
tp249
sI500
(I233
I231
tp250
sI501
(I37
I111
tp251
sI502
(I248
I247
tp252
sI503
(I51
I52
tp253
sI504
(I57
I67
tp254
sI505
(I175
I173
tp255
sI507
(I223
I222
tp256
sI509
(I87
I84
tp257
sI511
(I326
I325
tp258
sI512
(I330
I329
tp259
sI514
(I11
I2
tp260
sI518
(I23
I25
tp261
sI519
(I85
I21
tp262
sI520
(I240
I88
tp263
sI521
(I291
I289
tp264
sI523
(I276
I272
tp265
sI524
(I86
I90
tp266
sI525
(I361
I279
tp267
sI526
(I341
I336
tp268
sI528
(I184
I295
tp269
sI529
(I346
I340
tp270
sI531
(I157
I155
tp271
sI534
(I113
I114
tp272
sI535
(I195
I189
tp273
sI536
(I164
I162
tp274
sI537
(I149
I147
tp275
sI540
(I266
I263
tp276
sI541
(I178
I177
tp277
sI542
(I355
I350
tp278
sI543
(I208
I325
tp279
sI545
(I163
I161
tp280
sI546
(I37
I110
tp281
sI547
(I256
I258
tp282
sI548
(I299
I298
tp283
sI550
(I67
I68
tp284
sI554
(I252
I249
tp285
sI555
(I240
I87
tp286
sI557
(I255
I250
tp287
sI561
(I187
I186
tp288
sI566
(I237
I245
tp289
sI568
(I8
I54
tp290
sI571
(I343
I338
tp291
sI572
(I225
I329
tp292
sI583
(I90
I91
tp293
sI584
(I328
I327
tp294
sI585
(I212
I326
tp295
sI587
(I258
I260
tp296
sI588
(I264
I263
tp297
sI589
(I344
I338
tp298
sI590
(I40
I41
tp299
sI592
(I271
I268
tp300
sI598
(I219
I216
tp301
sI599
(I362
I358
tp302
sI600
(I253
I258
tp303
sI604
(I214
I210
tp304
sI606
(I303
I298
tp305
sI608
(I26
I28
tp306
sI612
(I337
I323
tp307
sI615
(I106
I107
tp308
sI616
(I155
I152
tp309
sI617
(I247
I244
tp310
sI618
(I215
I327
tp311
sI619
(I60
I61
tp312
sI622
(I347
I342
tp313
sI623
(I151
I149
tp314
sI626
(I348
I344
tp315
sI629
(I316
I313
tp316
sI631
(I161
I273
tp317
sI633
(I345
I340
tp318
sI634
(I314
I320
tp319
sI636
(I247
I249
tp320
sI638
(I327
I326
tp321
sI639
(I36
I104
tp322
sI643
(I139
I138
tp323
sI644
(I161
I270
tp324
sI645
(I297
I292
tp325
sI646
(I267
I265
tp326
sI648
(I259
I258
tp327
sI649
(I153
I151
tp328
sI650
(I126
I88
tp329
sI651
(I226
I224
tp330
sI653
(I269
I266
tp331
sI655
(I180
I179
tp332
sI658
(I34
I98
tp333
sI660
(I42
I38
tp334
sI662
(I22
I25
tp335
sI663
(I91
I92
tp336
sI665
(I129
I127
tp337
sI667
(I200
I194
tp338
sI668
(I21
I16
tp339
sI672
(I210
I209
tp340
sI677
(I128
I236
tp341
sI679
(I114
I115
tp342
sI681
(I332
I331
tp343
sI683
(I142
I141
tp344
sI687
(I38
I39
tp345
sI690
(I321
I316
tp346
sI694
(I280
I277
tp347
sI695
(I279
I276
tp348
sI697
(I133
I131
tp349
sI699
(I57
I68
tp350
sI700
(I324
I310
tp351
sI704
(I356
I351
tp352
sI705
(I55
I56
tp353
sI706
(I171
I280
tp354
sI707
(I97
I98
tp355
sI715
(I359
I355
tp356
sI716
(I144
I143
tp357
sI717
(I241
I239
tp358
sI720
(I102
I103
tp359
sI721
(I234
I332
tp360
sI723
(I299
I297
tp361
sI732
(I224
I221
tp362
sI733
(I264
I259
tp363
sI739
(I203
I202
tp364
sI742
(I84
I13
tp365
sI743
(I300
I298
tp366
sI744
(I130
I128
tp367
sI748
(I318
I320
tp368
sI751
(I243
I290
tp369
sI755
(I35
I102
tp370
sI756
(I376
I287
tp371
sI760
(I344
I339
tp372
sI762
(I268
I264
tp373
sI763
(I138
I135
tp374
sI764
(I260
I255
tp375
sI766
(I112
I113
tp376
sI768
(I293
I288
tp377
sI769
(I141
I247
tp378
sI770
(I58
I71
tp379
sI771
(I195
I307
tp380
sI774
(I151
I257
tp381
sI775
(I222
I218
tp382
sI786
(I35
I101
tp383
sI788
(I358
I355
tp384
sI789
(I208
I207
tp385
sI790
(I305
I302
tp386
sI792
(I122
I123
tp387
sI793
(I206
I319
tp388
sI795
(I186
I185
tp389
sI796
(I190
I187
tp390
sI797
(I163
I273
tp391
sI799
(I232
I230
tp392
sI800
(I192
I191
tp393
sI801
(I71
I72
tp394
sI805
(I72
I73
tp395
sI806
(I212
I211
tp396
sI807
(I36
I106
tp397
sI816
(I340
I335
tp398
sI820
(I239
I88
tp399
sI822
(I258
I254
tp400
sI823
(I221
I220
tp401
sI825
(I143
I251
tp402
sI827
(I175
I282
tp403
sI829
(I13
I14
tp404
sI830
(I319
I333
tp405
sI831
(I289
I240
tp406
sI838
(I81
I59
tp407
sI839
(I352
I272
tp408
sI841
(I375
I366
tp409
sI843
(I311
I305
tp410
sI845
(I130
I236
tp411
sI847
(I227
I225
tp412
sI848
(I244
I238
tp413
sI851
(I354
I348
tp414
sI855
(I181
I180
tp415
sI857
(I183
I182
tp416
sI859
(I74
I75
tp417
sI860
(I334
I320
tp418
sI863
(I352
I347
tp419
sI864
(I290
I239
tp420
sI865
(I231
I331
tp421
sI866
(I205
I199
tp422
sI867
(I87
I85
tp423
sI870
(I83
I12
tp424
sI871
(I265
I261
tp425
sI874
(I279
I275
tp426
sI875
(I280
I278
tp427
sI876
(I43
I42
tp428
sI877
(I9
I54
tp429
sI878
(I142
I248
tp430
sI881
(I251
I248
tp431
sI882
(I37
I109
tp432
sI884
(I335
I322
tp433
sI885
(I291
I292
tp434
sI886
(I169
I277
tp435
sI887
(I324
I255
tp436
sI888
(I217
I327
tp437
sI889
(I103
I104
tp438
sI890
(I20
I23
tp439
sI893
(I233
I332
tp440
sI895
(I198
I197
tp441
sI896
(I109
I110
tp442
sI898
(I326
I338
tp443
sI899
(I29
I31
tp444
sI901
(I330
I353
tp445
sI902
(I237
I242
tp446
sI903
(I154
I265
tp447
sI905
(I7
I8
tp448
sI913
(I149
I256
tp449
sI916
(I196
I195
tp450
sI917
(I28
I29
tp451
sI922
(I25
I27
tp452
sI923
(I78
I79
tp453
sI927
(I354
I349
tp454
sI930
(I96
I97
tp455
sI931
(I188
I295
tp456
sI933
(I37
I112
tp457
sI934
(I95
I96
tp458
sI935
(I107
I108
tp459
sI937
(I36
I105
tp460
sI938
(I274
I275
tp461
sI940
(I293
I291
tp462
sI941
(I99
I100
tp463
sI942
(I281
I280
tp464
sI944
(I236
I235
tp465
sI947
(I253
I251
tp466
sI948
(I353
I348
tp467
sI949
(I167
I164
tp468
sI950
(I237
I236
tp469
sI951
(I222
I328
tp470
sI952
(I211
I208
tp471
sI955
(I166
I165
tp472
sI956
(I207
I206
tp473
sI957
(I18
I19
tp474
sI960
(I61
I62
tp475
sI961
(I165
I274
tp476
sI963
(I117
I118
tp477
sI964
(I314
I308
tp478
sI965
(I230
I228
tp479
sI966
(I261
I264
tp480
sI969
(I234
I233
tp481
sI970
(I357
I352
tp482
sI971
(I73
I74
tp483
sI978
(I199
I318
tp484
sI982
(I209
I204
tp485
sI985
(I319
I318
tp486
sI986
(I257
I256
tp487
sI987
(I197
I196
tp488
sI989
(I202
I201
tp489
sI990
(I282
I283
tp490
sI991
(I145
I140
tp491
sI992
(I360
I355
tp492
sI993
(I159
I156
tp493
sI994
(I276
I271
tp494
sI996
(I336
I322
tp495
sI997
(I215
I213
tp496
sI998
(I306
I299
tp497
sI999
(I298
I292
tp498
sI1001
(I274
I273
tp499
sI1002
(I58
I70
tp500
sI1003
(I174
I172
tp501
sI1006
(I328
I348
tp502
sI1007
(I156
I154
tp503
sI1009
(I199
I198
tp504
sI1010
(I2
I0
tp505
sI1011
(I54
I55
tp506
sI1013
(I223
I329
tp507
sI1016
(I146
I145
tp508
sI1017
(I315
I313
tp509
sI1022
(I59
I60
tp510
sI1023
(I318
I314
tp511
sI1025
(I250
I246
tp512
sI1026
(I253
I254
tp513
sI1027
(I227
I330
tp514
sI1028
(I136
I244
tp515
sI1030
(I105
I106
tp516
sI1032
(I348
I343
tp517
sI1033
(I121
I122
tp518
sI1034
(I31
I33
tp519
sI1035
(I285
I282
tp520
sI1036
(I213
I212
tp521
sI1037
(I173
I171
tp522
sI1038
(I307
I309
tp523
sI1047
(I350
I345
tp524
sI1048
(I254
I252
tp525
sI1049
(I273
I270
tp526
sI1050
(I98
I99
tp527
sI1054
(I374
I365
tp528
sI1055
(I346
I341
tp529
sI1056
(I188
I296
tp530
sI1057
(I366
I360
tp531
sI1059
(I132
I237
tp532
sI1060
(I292
I289
tp533
stp534
Rp535
(dp536
S'description'
p537
S"#type : <class 'celltissue.data.tissue_property.TissueProperty'>\n\nid of walls and orientation of pumps from sid to tid"
p538
sb.