ccopy_reg
_reconstructor
p0
(ccelltissue.serial.io_property
IOAbstractProperty
p1
c__builtin__
dict
p2
(dp3
I0
(dp4
Vopacity
p5
V1
p6
sVstroke-linejoin
p7
Vmiter
p8
sVstroke-opacity
p9
g6
sVfill-rule
p10
Vevenodd
p11
sVfill-opacity
p12
g6
sVstroke-dashoffset
p13
V0
p14
sVstroke
p15
Vnone
p16
sVstroke-linecap
p17
Vround
p18
sVstroke-miterlimit
p19
V4
p20
sVstroke-dasharray
p21
Vnone
p22
sVstroke-width
p23
V2.07500005
p24
sVfill
p25
V#ff8100
p26
ssI1
(dp27
Vopacity
p28
g6
sVstroke-linejoin
p29
Vmiter
p30
sVstroke-opacity
p31
g6
sVfill-rule
p32
Vevenodd
p33
sVfill-opacity
p34
g6
sVstroke-dashoffset
p35
g14
sVstroke
p36
Vnone
p37
sVstroke-linecap
p38
Vround
p39
sVstroke-miterlimit
p40
g20
sVstroke-dasharray
p41
Vnone
p42
sVstroke-width
p43
V2.07500005
p44
sVfill
p45
V#ff8100
p46
ssI2
(dp47
Vopacity
p48
g6
sVstroke-linejoin
p49
Vmiter
p50
sVstroke-opacity
p51
g6
sVfill-rule
p52
Vevenodd
p53
sVfill-opacity
p54
g6
sVstroke-dashoffset
p55
g14
sVstroke
p56
Vnone
p57
sVstroke-linecap
p58
Vround
p59
sVstroke-miterlimit
p60
g20
sVstroke-dasharray
p61
Vnone
p62
sVstroke-width
p63
V2.07500005
p64
sVfill
p65
V#ff8100
p66
ssI3
(dp67
Vopacity
p68
g6
sVstroke-linejoin
p69
Vmiter
p70
sVstroke-opacity
p71
g6
sVfill-rule
p72
Vevenodd
p73
sVfill-opacity
p74
g6
sVstroke-dashoffset
p75
g14
sVstroke
p76
Vnone
p77
sVstroke-linecap
p78
Vround
p79
sVstroke-miterlimit
p80
g20
sVstroke-dasharray
p81
Vnone
p82
sVstroke-width
p83
V2.07500005
p84
sVfill
p85
V#005000
p86
ssI4
(dp87
Vopacity
p88
g6
sVstroke-linejoin
p89
Vmiter
p90
sVstroke-opacity
p91
g6
sVfill-rule
p92
Vevenodd
p93
sVfill-opacity
p94
g6
sVstroke-dashoffset
p95
g14
sVstroke
p96
Vnone
p97
sVstroke-linecap
p98
Vround
p99
sVstroke-miterlimit
p100
g20
sVstroke-dasharray
p101
Vnone
p102
sVstroke-width
p103
V2.07500005
p104
sVfill
p105
V#005000
p106
ssI5
(dp107
Vopacity
p108
g6
sVstroke-linejoin
p109
Vmiter
p110
sVstroke-opacity
p111
g6
sVfill-rule
p112
Vevenodd
p113
sVfill-opacity
p114
g6
sVstroke-dashoffset
p115
g14
sVstroke
p116
Vnone
p117
sVstroke-linecap
p118
Vround
p119
sVstroke-miterlimit
p120
g20
sVstroke-dasharray
p121
Vnone
p122
sVstroke-width
p123
V2.07500005
p124
sVfill
p125
V#005000
p126
ssI6
(dp127
Vopacity
p128
g6
sVstroke-linejoin
p129
Vmiter
p130
sVstroke-opacity
p131
g6
sVfill-rule
p132
Vevenodd
p133
sVfill-opacity
p134
g6
sVstroke-dashoffset
p135
g14
sVstroke
p136
Vnone
p137
sVstroke-linecap
p138
Vround
p139
sVstroke-miterlimit
p140
g20
sVstroke-dasharray
p141
Vnone
p142
sVstroke-width
p143
V2.07500005
p144
sVfill
p145
V#005000
p146
ssI7
(dp147
Vopacity
p148
g6
sVstroke-linejoin
p149
Vmiter
p150
sVstroke-opacity
p151
g6
sVfill-rule
p152
Vevenodd
p153
sVfill-opacity
p154
g6
sVstroke-dashoffset
p155
g14
sVstroke
p156
Vnone
p157
sVstroke-linecap
p158
Vround
p159
sVstroke-miterlimit
p160
g20
sVstroke-dasharray
p161
Vnone
p162
sVstroke-width
p163
V2.07500005
p164
sVfill
p165
V#005000
p166
ssI8
(dp167
Vopacity
p168
g6
sVstroke-linejoin
p169
Vmiter
p170
sVstroke-opacity
p171
g6
sVfill-rule
p172
Vevenodd
p173
sVfill-opacity
p174
g6
sVstroke-dashoffset
p175
g14
sVstroke
p176
Vnone
p177
sVstroke-linecap
p178
Vround
p179
sVstroke-miterlimit
p180
g20
sVstroke-dasharray
p181
Vnone
p182
sVstroke-width
p183
V2.07500005
p184
sVfill
p185
V#005000
p186
ssI9
(dp187
Vopacity
p188
g6
sVstroke-linejoin
p189
Vmiter
p190
sVstroke-opacity
p191
g6
sVfill-rule
p192
Vevenodd
p193
sVfill-opacity
p194
g6
sVstroke-dashoffset
p195
g14
sVstroke
p196
Vnone
p197
sVstroke-linecap
p198
Vround
p199
sVstroke-miterlimit
p200
g20
sVstroke-dasharray
p201
Vnone
p202
sVstroke-width
p203
V2.07500005
p204
sVfill
p205
V#005000
p206
ssI10
(dp207
Vopacity
p208
g6
sVstroke-linejoin
p209
Vmiter
p210
sVstroke-opacity
p211
g6
sVfill-rule
p212
Vevenodd
p213
sVfill-opacity
p214
g6
sVstroke-dashoffset
p215
g14
sVstroke
p216
Vnone
p217
sVstroke-linecap
p218
Vround
p219
sVstroke-miterlimit
p220
g20
sVstroke-dasharray
p221
Vnone
p222
sVstroke-width
p223
V2.07500005
p224
sVfill
p225
V#005000
p226
ssI11
(dp227
Vopacity
p228
g6
sVstroke-linejoin
p229
Vmiter
p230
sVstroke-opacity
p231
g6
sVfill-rule
p232
Vevenodd
p233
sVfill-opacity
p234
g6
sVstroke-dashoffset
p235
g14
sVstroke
p236
Vnone
p237
sVstroke-linecap
p238
Vround
p239
sVstroke-miterlimit
p240
g20
sVstroke-dasharray
p241
Vnone
p242
sVstroke-width
p243
V2.07500005
p244
sVfill
p245
V#ff8100
p246
ssI12
(dp247
Vopacity
p248
g6
sVstroke-linejoin
p249
Vmiter
p250
sVstroke-opacity
p251
g6
sVfill-rule
p252
Vevenodd
p253
sVfill-opacity
p254
g6
sVstroke-dashoffset
p255
g14
sVstroke
p256
Vnone
p257
sVstroke-linecap
p258
Vround
p259
sVstroke-miterlimit
p260
g20
sVstroke-dasharray
p261
Vnone
p262
sVstroke-width
p263
V2.07500005
p264
sVfill
p265
V#ff8100
p266
ssI13
(dp267
Vopacity
p268
g6
sVstroke-linejoin
p269
Vmiter
p270
sVstroke-opacity
p271
g6
sVfill-rule
p272
Vevenodd
p273
sVfill-opacity
p274
g6
sVstroke-dashoffset
p275
g14
sVstroke
p276
Vnone
p277
sVstroke-linecap
p278
Vround
p279
sVstroke-miterlimit
p280
g20
sVstroke-dasharray
p281
Vnone
p282
sVstroke-width
p283
V2.07500005
p284
sVfill
p285
V#ff8100
p286
ssI14
(dp287
Vopacity
p288
g6
sVstroke-linejoin
p289
Vmiter
p290
sVstroke-opacity
p291
g6
sVfill-rule
p292
Vevenodd
p293
sVfill-opacity
p294
g6
sVstroke-dashoffset
p295
g14
sVstroke
p296
Vnone
p297
sVstroke-linecap
p298
Vround
p299
sVstroke-miterlimit
p300
g20
sVstroke-dasharray
p301
Vnone
p302
sVstroke-width
p303
V2.07500005
p304
sVfill
p305
V#ff8100
p306
ssI15
(dp307
Vopacity
p308
g6
sVstroke-linejoin
p309
Vmiter
p310
sVstroke-opacity
p311
g6
sVfill-rule
p312
Vevenodd
p313
sVfill-opacity
p314
g6
sVstroke-dashoffset
p315
g14
sVstroke
p316
Vnone
p317
sVstroke-linecap
p318
Vround
p319
sVstroke-miterlimit
p320
g20
sVstroke-dasharray
p321
Vnone
p322
sVstroke-width
p323
V2.07500005
p324
sVfill
p325
V#ff8100
p326
ssI16
(dp327
Vopacity
p328
g6
sVstroke-linejoin
p329
Vmiter
p330
sVstroke-opacity
p331
g6
sVfill-rule
p332
Vevenodd
p333
sVfill-opacity
p334
g6
sVstroke-dashoffset
p335
g14
sVstroke
p336
Vnone
p337
sVstroke-linecap
p338
Vround
p339
sVstroke-miterlimit
p340
g20
sVstroke-dasharray
p341
Vnone
p342
sVstroke-width
p343
V2.07500005
p344
sVfill
p345
V#ff8100
p346
ssI17
(dp347
Vopacity
p348
g6
sVstroke-linejoin
p349
Vmiter
p350
sVstroke-opacity
p351
g6
sVfill-rule
p352
Vevenodd
p353
sVfill-opacity
p354
g6
sVstroke-dashoffset
p355
g14
sVstroke
p356
Vnone
p357
sVstroke-linecap
p358
Vround
p359
sVstroke-miterlimit
p360
g20
sVstroke-dasharray
p361
Vnone
p362
sVstroke-width
p363
V2.07500005
p364
sVfill
p365
V#ff8100
p366
ssI18
(dp367
Vopacity
p368
g6
sVstroke-linejoin
p369
Vmiter
p370
sVstroke-opacity
p371
g6
sVfill-rule
p372
Vevenodd
p373
sVfill-opacity
p374
g6
sVstroke-dashoffset
p375
g14
sVstroke
p376
Vnone
p377
sVstroke-linecap
p378
Vround
p379
sVstroke-miterlimit
p380
g20
sVstroke-dasharray
p381
Vnone
p382
sVstroke-width
p383
V2.07500005
p384
sVfill
p385
V#005000
p386
ssI19
(dp387
Vopacity
p388
g6
sVstroke-linejoin
p389
Vmiter
p390
sVstroke-opacity
p391
g6
sVfill-rule
p392
Vevenodd
p393
sVfill-opacity
p394
g6
sVstroke-dashoffset
p395
g14
sVstroke
p396
Vnone
p397
sVstroke-linecap
p398
Vround
p399
sVstroke-miterlimit
p400
g20
sVstroke-dasharray
p401
Vnone
p402
sVstroke-width
p403
V2.07500005
p404
sVfill
p405
V#005000
p406
ssI20
(dp407
Vopacity
p408
g6
sVstroke-linejoin
p409
Vmiter
p410
sVstroke-opacity
p411
g6
sVfill-rule
p412
Vevenodd
p413
sVfill-opacity
p414
g6
sVstroke-dashoffset
p415
g14
sVstroke
p416
Vnone
p417
sVstroke-linecap
p418
Vround
p419
sVstroke-miterlimit
p420
g20
sVstroke-dasharray
p421
Vnone
p422
sVstroke-width
p423
V2.07500005
p424
sVfill
p425
V#005000
p426
ssI21
(dp427
Vopacity
p428
g6
sVstroke-linejoin
p429
Vmiter
p430
sVstroke-opacity
p431
g6
sVfill-rule
p432
Vevenodd
p433
sVfill-opacity
p434
g6
sVstroke-dashoffset
p435
g14
sVstroke
p436
Vnone
p437
sVstroke-linecap
p438
Vround
p439
sVstroke-miterlimit
p440
g20
sVstroke-dasharray
p441
Vnone
p442
sVstroke-width
p443
V2.07500005
p444
sVfill
p445
V#ff8100
p446
ssI22
(dp447
Vopacity
p448
g6
sVstroke-linejoin
p449
Vmiter
p450
sVstroke-opacity
p451
g6
sVfill-rule
p452
Vevenodd
p453
sVfill-opacity
p454
g6
sVstroke-dashoffset
p455
g14
sVstroke
p456
Vnone
p457
sVstroke-linecap
p458
Vround
p459
sVstroke-miterlimit
p460
g20
sVstroke-dasharray
p461
Vnone
p462
sVstroke-width
p463
V2.07500005
p464
sVfill
p465
V#005000
p466
ssI23
(dp467
Vopacity
p468
g6
sVstroke-linejoin
p469
Vmiter
p470
sVstroke-opacity
p471
g6
sVfill-rule
p472
Vevenodd
p473
sVfill-opacity
p474
g6
sVstroke-dashoffset
p475
g14
sVstroke
p476
Vnone
p477
sVstroke-linecap
p478
Vround
p479
sVstroke-miterlimit
p480
g20
sVstroke-dasharray
p481
Vnone
p482
sVstroke-width
p483
V2.07500005
p484
sVfill
p485
V#005000
p486
ssI24
(dp487
Vopacity
p488
g6
sVstroke-linejoin
p489
Vmiter
p490
sVstroke-opacity
p491
g6
sVfill-rule
p492
Vevenodd
p493
sVfill-opacity
p494
g6
sVstroke-dashoffset
p495
g14
sVstroke
p496
Vnone
p497
sVstroke-linecap
p498
Vround
p499
sVstroke-miterlimit
p500
g20
sVstroke-dasharray
p501
Vnone
p502
sVstroke-width
p503
V2.07500005
p504
sVfill
p505
V#005000
p506
ssI25
(dp507
Vopacity
p508
g6
sVstroke-linejoin
p509
Vmiter
p510
sVstroke-opacity
p511
g6
sVfill-rule
p512
Vevenodd
p513
sVfill-opacity
p514
g6
sVstroke-dashoffset
p515
g14
sVstroke
p516
Vnone
p517
sVstroke-linecap
p518
Vround
p519
sVstroke-miterlimit
p520
g20
sVstroke-dasharray
p521
Vnone
p522
sVstroke-width
p523
V2.07500005
p524
sVfill
p525
V#005000
p526
ssI26
(dp527
Vopacity
p528
g6
sVstroke-linejoin
p529
Vmiter
p530
sVstroke-opacity
p531
g6
sVfill-rule
p532
Vevenodd
p533
sVfill-opacity
p534
g6
sVstroke-dashoffset
p535
g14
sVstroke
p536
Vnone
p537
sVstroke-linecap
p538
Vround
p539
sVstroke-miterlimit
p540
g20
sVstroke-dasharray
p541
Vnone
p542
sVstroke-width
p543
V2.07500005
p544
sVfill
p545
V#005000
p546
ssI27
(dp547
Vopacity
p548
g6
sVstroke-linejoin
p549
Vmiter
p550
sVstroke-opacity
p551
g6
sVfill-rule
p552
Vevenodd
p553
sVfill-opacity
p554
g6
sVstroke-dashoffset
p555
g14
sVstroke
p556
Vnone
p557
sVstroke-linecap
p558
Vround
p559
sVstroke-miterlimit
p560
g20
sVstroke-dasharray
p561
Vnone
p562
sVstroke-width
p563
V2.07500005
p564
sVfill
p565
V#005000
p566
ssI28
(dp567
Vopacity
p568
g6
sVstroke-linejoin
p569
Vmiter
p570
sVstroke-opacity
p571
g6
sVfill-rule
p572
Vevenodd
p573
sVfill-opacity
p574
g6
sVstroke-dashoffset
p575
g14
sVstroke
p576
Vnone
p577
sVstroke-linecap
p578
Vround
p579
sVstroke-miterlimit
p580
g20
sVstroke-dasharray
p581
Vnone
p582
sVstroke-width
p583
V2.07500005
p584
sVfill
p585
V#005000
p586
ssI29
(dp587
Vopacity
p588
g6
sVstroke-linejoin
p589
Vmiter
p590
sVstroke-opacity
p591
g6
sVfill-rule
p592
Vevenodd
p593
sVfill-opacity
p594
g6
sVstroke-dashoffset
p595
g14
sVstroke
p596
Vnone
p597
sVstroke-linecap
p598
Vround
p599
sVstroke-miterlimit
p600
g20
sVstroke-dasharray
p601
Vnone
p602
sVstroke-width
p603
V2.07500005
p604
sVfill
p605
V#005000
p606
ssI30
(dp607
Vopacity
p608
g6
sVstroke-linejoin
p609
Vmiter
p610
sVstroke-opacity
p611
g6
sVfill-rule
p612
Vevenodd
p613
sVfill-opacity
p614
g6
sVstroke-dashoffset
p615
g14
sVstroke
p616
Vnone
p617
sVstroke-linecap
p618
Vround
p619
sVstroke-miterlimit
p620
g20
sVstroke-dasharray
p621
Vnone
p622
sVstroke-width
p623
V2.07500005
p624
sVfill
p625
V#005000
p626
ssI31
(dp627
Vopacity
p628
g6
sVstroke-linejoin
p629
Vmiter
p630
sVstroke-opacity
p631
g6
sVfill-rule
p632
Vevenodd
p633
sVfill-opacity
p634
g6
sVstroke-dashoffset
p635
g14
sVstroke
p636
Vnone
p637
sVstroke-linecap
p638
Vround
p639
sVstroke-miterlimit
p640
g20
sVstroke-dasharray
p641
Vnone
p642
sVstroke-width
p643
V2.07500005
p644
sVfill
p645
V#005000
p646
ssI32
(dp647
Vopacity
p648
g6
sVstroke-linejoin
p649
Vmiter
p650
sVstroke-opacity
p651
g6
sVfill-rule
p652
Vevenodd
p653
sVfill-opacity
p654
g6
sVstroke-dashoffset
p655
g14
sVstroke
p656
Vnone
p657
sVstroke-linecap
p658
Vround
p659
sVstroke-miterlimit
p660
g20
sVstroke-dasharray
p661
Vnone
p662
sVstroke-width
p663
V2.07500005
p664
sVfill
p665
V#005000
p666
ssI33
(dp667
Vopacity
p668
g6
sVstroke-linejoin
p669
Vmiter
p670
sVstroke-opacity
p671
g6
sVfill-rule
p672
Vevenodd
p673
sVfill-opacity
p674
g6
sVstroke-dashoffset
p675
g14
sVstroke
p676
Vnone
p677
sVstroke-linecap
p678
Vround
p679
sVstroke-miterlimit
p680
g20
sVstroke-dasharray
p681
Vnone
p682
sVstroke-width
p683
V2.07500005
p684
sVfill
p685
V#005000
p686
ssI34
(dp687
Vopacity
p688
g6
sVstroke-linejoin
p689
Vmiter
p690
sVstroke-opacity
p691
g6
sVfill-rule
p692
Vevenodd
p693
sVfill-opacity
p694
g6
sVstroke-dashoffset
p695
g14
sVstroke
p696
Vnone
p697
sVstroke-linecap
p698
Vround
p699
sVstroke-miterlimit
p700
g20
sVstroke-dasharray
p701
Vnone
p702
sVstroke-width
p703
V2.07500005
p704
sVfill
p705
V#005000
p706
ssI35
(dp707
Vopacity
p708
g6
sVstroke-linejoin
p709
Vmiter
p710
sVstroke-opacity
p711
g6
sVfill-rule
p712
Vevenodd
p713
sVfill-opacity
p714
g6
sVstroke-dashoffset
p715
g14
sVstroke
p716
Vnone
p717
sVstroke-linecap
p718
Vround
p719
sVstroke-miterlimit
p720
g20
sVstroke-dasharray
p721
Vnone
p722
sVstroke-width
p723
V2.07500005
p724
sVfill
p725
V#005000
p726
ssI36
(dp727
Vopacity
p728
g6
sVstroke-linejoin
p729
Vmiter
p730
sVstroke-opacity
p731
g6
sVfill-rule
p732
Vevenodd
p733
sVfill-opacity
p734
g6
sVstroke-dashoffset
p735
g14
sVstroke
p736
Vnone
p737
sVstroke-linecap
p738
Vround
p739
sVstroke-miterlimit
p740
g20
sVstroke-dasharray
p741
Vnone
p742
sVstroke-width
p743
V2.07500005
p744
sVfill
p745
V#005000
p746
ssI37
(dp747
Vopacity
p748
g6
sVstroke-linejoin
p749
Vmiter
p750
sVstroke-opacity
p751
g6
sVfill-rule
p752
Vevenodd
p753
sVfill-opacity
p754
g6
sVstroke-dashoffset
p755
g14
sVstroke
p756
Vnone
p757
sVstroke-linecap
p758
Vround
p759
sVstroke-miterlimit
p760
g20
sVstroke-dasharray
p761
Vnone
p762
sVstroke-width
p763
V2.07500005
p764
sVfill
p765
V#005000
p766
ssI38
(dp767
Vopacity
p768
g6
sVstroke-linejoin
p769
Vmiter
p770
sVstroke-opacity
p771
g6
sVfill-rule
p772
Vevenodd
p773
sVfill-opacity
p774
g6
sVstroke-dashoffset
p775
g14
sVstroke
p776
Vnone
p777
sVstroke-linecap
p778
Vround
p779
sVstroke-miterlimit
p780
g20
sVstroke-dasharray
p781
Vnone
p782
sVstroke-width
p783
V2.07500005
p784
sVfill
p785
V#005000
p786
ssI39
(dp787
Vopacity
p788
g6
sVstroke-linejoin
p789
Vmiter
p790
sVstroke-opacity
p791
g6
sVfill-rule
p792
Vevenodd
p793
sVfill-opacity
p794
g6
sVstroke-dashoffset
p795
g14
sVstroke
p796
Vnone
p797
sVstroke-linecap
p798
Vround
p799
sVstroke-miterlimit
p800
g20
sVstroke-dasharray
p801
Vnone
p802
sVstroke-width
p803
V2.07500005
p804
sVfill
p805
V#005000
p806
ssI40
(dp807
Vopacity
p808
g6
sVstroke-linejoin
p809
Vmiter
p810
sVstroke-opacity
p811
g6
sVfill-rule
p812
Vevenodd
p813
sVfill-opacity
p814
g6
sVstroke-dashoffset
p815
g14
sVstroke
p816
Vnone
p817
sVstroke-linecap
p818
Vround
p819
sVstroke-miterlimit
p820
g20
sVstroke-dasharray
p821
Vnone
p822
sVstroke-width
p823
V2.07500005
p824
sVfill
p825
V#005000
p826
ssI41
(dp827
Vopacity
p828
g6
sVstroke-linejoin
p829
Vmiter
p830
sVstroke-opacity
p831
g6
sVfill-rule
p832
Vevenodd
p833
sVfill-opacity
p834
g6
sVstroke-dashoffset
p835
g14
sVstroke
p836
Vnone
p837
sVstroke-linecap
p838
Vround
p839
sVstroke-miterlimit
p840
g20
sVstroke-dasharray
p841
Vnone
p842
sVstroke-width
p843
V2.07500005
p844
sVfill
p845
V#005000
p846
ssI42
(dp847
Vopacity
p848
g6
sVstroke-linejoin
p849
Vmiter
p850
sVstroke-opacity
p851
g6
sVfill-rule
p852
Vevenodd
p853
sVfill-opacity
p854
g6
sVstroke-dashoffset
p855
g14
sVstroke
p856
Vnone
p857
sVstroke-linecap
p858
Vround
p859
sVstroke-miterlimit
p860
g20
sVstroke-dasharray
p861
Vnone
p862
sVstroke-width
p863
V2.07500005
p864
sVfill
p865
V#005000
p866
ssI43
(dp867
Vopacity
p868
g6
sVstroke-linejoin
p869
Vmiter
p870
sVstroke-opacity
p871
g6
sVfill-rule
p872
Vevenodd
p873
sVfill-opacity
p874
g6
sVstroke-dashoffset
p875
g14
sVstroke
p876
Vnone
p877
sVstroke-linecap
p878
Vround
p879
sVstroke-miterlimit
p880
g20
sVstroke-dasharray
p881
Vnone
p882
sVstroke-width
p883
V2.07500005
p884
sVfill
p885
V#005000
p886
ssI44
(dp887
Vopacity
p888
g6
sVstroke-linejoin
p889
Vmiter
p890
sVstroke-opacity
p891
g6
sVfill-rule
p892
Vevenodd
p893
sVfill-opacity
p894
g6
sVstroke-dashoffset
p895
g14
sVstroke
p896
Vnone
p897
sVstroke-linecap
p898
Vround
p899
sVstroke-miterlimit
p900
g20
sVstroke-dasharray
p901
Vnone
p902
sVstroke-width
p903
V2.07500005
p904
sVfill
p905
V#ff8100
p906
ssI45
(dp907
Vopacity
p908
g6
sVstroke-linejoin
p909
Vmiter
p910
sVstroke-opacity
p911
g6
sVfill-rule
p912
Vevenodd
p913
sVfill-opacity
p914
g6
sVstroke-dashoffset
p915
g14
sVstroke
p916
Vnone
p917
sVstroke-linecap
p918
Vround
p919
sVstroke-miterlimit
p920
g20
sVstroke-dasharray
p921
Vnone
p922
sVstroke-width
p923
V2.07500005
p924
sVfill
p925
V#ff8100
p926
ssI46
(dp927
Vopacity
p928
g6
sVstroke-linejoin
p929
Vmiter
p930
sVstroke-opacity
p931
g6
sVfill-rule
p932
Vevenodd
p933
sVfill-opacity
p934
g6
sVstroke-dashoffset
p935
g14
sVstroke
p936
Vnone
p937
sVstroke-linecap
p938
Vround
p939
sVstroke-miterlimit
p940
g20
sVstroke-dasharray
p941
Vnone
p942
sVstroke-width
p943
V2.07500005
p944
sVfill
p945
V#ff8100
p946
ssI47
(dp947
Vopacity
p948
g6
sVstroke-linejoin
p949
Vmiter
p950
sVstroke-opacity
p951
g6
sVfill-rule
p952
Vevenodd
p953
sVfill-opacity
p954
g6
sVstroke-dashoffset
p955
g14
sVstroke
p956
Vnone
p957
sVstroke-linecap
p958
Vround
p959
sVstroke-miterlimit
p960
g20
sVstroke-dasharray
p961
Vnone
p962
sVstroke-width
p963
V2.07500005
p964
sVfill
p965
V#ff8100
p966
ssI48
(dp967
Vopacity
p968
g6
sVstroke-linejoin
p969
Vmiter
p970
sVstroke-opacity
p971
g6
sVfill-rule
p972
Vevenodd
p973
sVfill-opacity
p974
g6
sVstroke-dashoffset
p975
g14
sVstroke
p976
Vnone
p977
sVstroke-linecap
p978
Vround
p979
sVstroke-miterlimit
p980
g20
sVstroke-dasharray
p981
Vnone
p982
sVstroke-width
p983
V2.07500005
p984
sVfill
p985
V#ff8100
p986
ssI49
(dp987
Vopacity
p988
g6
sVstroke-linejoin
p989
Vmiter
p990
sVstroke-opacity
p991
g6
sVfill-rule
p992
Vevenodd
p993
sVfill-opacity
p994
g6
sVstroke-dashoffset
p995
g14
sVstroke
p996
Vnone
p997
sVstroke-linecap
p998
Vround
p999
sVstroke-miterlimit
p1000
g20
sVstroke-dasharray
p1001
Vnone
p1002
sVstroke-width
p1003
V2.07500005
p1004
sVfill
p1005
V#ff8100
p1006
ssI50
(dp1007
Vopacity
p1008
g6
sVstroke-linejoin
p1009
Vmiter
p1010
sVstroke-opacity
p1011
g6
sVfill-rule
p1012
Vevenodd
p1013
sVfill-opacity
p1014
g6
sVstroke-dashoffset
p1015
g14
sVstroke
p1016
Vnone
p1017
sVstroke-linecap
p1018
Vround
p1019
sVstroke-miterlimit
p1020
g20
sVstroke-dasharray
p1021
Vnone
p1022
sVstroke-width
p1023
V2.07500005
p1024
sVfill
p1025
V#ff8100
p1026
ssI51
(dp1027
Vopacity
p1028
g6
sVstroke-linejoin
p1029
Vmiter
p1030
sVstroke-opacity
p1031
g6
sVfill-rule
p1032
Vevenodd
p1033
sVfill-opacity
p1034
g6
sVstroke-dashoffset
p1035
g14
sVstroke
p1036
Vnone
p1037
sVstroke-linecap
p1038
Vround
p1039
sVstroke-miterlimit
p1040
g20
sVstroke-dasharray
p1041
Vnone
p1042
sVstroke-width
p1043
V2.07500005
p1044
sVfill
p1045
V#005000
p1046
ssI52
(dp1047
Vopacity
p1048
g6
sVstroke-linejoin
p1049
Vmiter
p1050
sVstroke-opacity
p1051
g6
sVfill-rule
p1052
Vevenodd
p1053
sVfill-opacity
p1054
g6
sVstroke-dashoffset
p1055
g14
sVstroke
p1056
Vnone
p1057
sVstroke-linecap
p1058
Vround
p1059
sVstroke-miterlimit
p1060
g20
sVstroke-dasharray
p1061
Vnone
p1062
sVstroke-width
p1063
V2.07500005
p1064
sVfill
p1065
V#005000
p1066
ssI53
(dp1067
Vopacity
p1068
g6
sVstroke-linejoin
p1069
Vmiter
p1070
sVstroke-opacity
p1071
g6
sVfill-rule
p1072
Vevenodd
p1073
sVfill-opacity
p1074
g6
sVstroke-dashoffset
p1075
g14
sVstroke
p1076
Vnone
p1077
sVstroke-linecap
p1078
Vround
p1079
sVstroke-miterlimit
p1080
g20
sVstroke-dasharray
p1081
Vnone
p1082
sVstroke-width
p1083
V2.07500005
p1084
sVfill
p1085
V#005000
p1086
ssI54
(dp1087
Vopacity
p1088
g6
sVstroke-linejoin
p1089
Vmiter
p1090
sVstroke-opacity
p1091
g6
sVfill-rule
p1092
Vevenodd
p1093
sVfill-opacity
p1094
g6
sVstroke-dashoffset
p1095
g14
sVstroke
p1096
Vnone
p1097
sVstroke-linecap
p1098
Vround
p1099
sVstroke-miterlimit
p1100
g20
sVstroke-dasharray
p1101
Vnone
p1102
sVstroke-width
p1103
V2.07500005
p1104
sVfill
p1105
V#005000
p1106
ssI55
(dp1107
Vopacity
p1108
g6
sVstroke-linejoin
p1109
Vmiter
p1110
sVstroke-opacity
p1111
g6
sVfill-rule
p1112
Vevenodd
p1113
sVfill-opacity
p1114
g6
sVstroke-dashoffset
p1115
g14
sVstroke
p1116
Vnone
p1117
sVstroke-linecap
p1118
Vround
p1119
sVstroke-miterlimit
p1120
g20
sVstroke-dasharray
p1121
Vnone
p1122
sVstroke-width
p1123
V2.07500005
p1124
sVfill
p1125
V#005000
p1126
ssI56
(dp1127
Vopacity
p1128
g6
sVstroke-linejoin
p1129
Vmiter
p1130
sVstroke-opacity
p1131
g6
sVfill-rule
p1132
Vevenodd
p1133
sVfill-opacity
p1134
g6
sVstroke-dashoffset
p1135
g14
sVstroke
p1136
Vnone
p1137
sVstroke-linecap
p1138
Vround
p1139
sVstroke-miterlimit
p1140
g20
sVstroke-dasharray
p1141
Vnone
p1142
sVstroke-width
p1143
V2.07500005
p1144
sVfill
p1145
V#005000
p1146
ssI57
(dp1147
Vopacity
p1148
g6
sVstroke-linejoin
p1149
Vmiter
p1150
sVstroke-opacity
p1151
g6
sVfill-rule
p1152
Vevenodd
p1153
sVfill-opacity
p1154
g6
sVstroke-dashoffset
p1155
g14
sVstroke
p1156
Vnone
p1157
sVstroke-linecap
p1158
Vround
p1159
sVstroke-miterlimit
p1160
g20
sVstroke-dasharray
p1161
Vnone
p1162
sVstroke-width
p1163
V2.07500005
p1164
sVfill
p1165
V#005000
p1166
ssI58
(dp1167
Vopacity
p1168
g6
sVstroke-linejoin
p1169
Vmiter
p1170
sVstroke-opacity
p1171
g6
sVfill-rule
p1172
Vevenodd
p1173
sVfill-opacity
p1174
g6
sVstroke-dashoffset
p1175
g14
sVstroke
p1176
Vnone
p1177
sVstroke-linecap
p1178
Vround
p1179
sVstroke-miterlimit
p1180
g20
sVstroke-dasharray
p1181
Vnone
p1182
sVstroke-width
p1183
V2.07500005
p1184
sVfill
p1185
V#005000
p1186
ssI59
(dp1187
Vopacity
p1188
g6
sVstroke-linejoin
p1189
Vmiter
p1190
sVstroke-opacity
p1191
g6
sVfill-rule
p1192
Vevenodd
p1193
sVfill-opacity
p1194
g6
sVstroke-dashoffset
p1195
g14
sVstroke
p1196
Vnone
p1197
sVstroke-linecap
p1198
Vround
p1199
sVstroke-miterlimit
p1200
g20
sVstroke-dasharray
p1201
Vnone
p1202
sVstroke-width
p1203
V2.07500005
p1204
sVfill
p1205
V#ffff00
p1206
ssI60
(dp1207
Vopacity
p1208
g6
sVstroke-linejoin
p1209
Vmiter
p1210
sVstroke-opacity
p1211
g6
sVfill-rule
p1212
Vevenodd
p1213
sVfill-opacity
p1214
g6
sVstroke-dashoffset
p1215
g14
sVstroke
p1216
Vnone
p1217
sVstroke-linecap
p1218
Vround
p1219
sVstroke-miterlimit
p1220
g20
sVstroke-dasharray
p1221
Vnone
p1222
sVstroke-width
p1223
V2.07500005
p1224
sVfill
p1225
V#ffff00
p1226
ssI61
(dp1227
Vopacity
p1228
g6
sVstroke-linejoin
p1229
Vmiter
p1230
sVstroke-opacity
p1231
g6
sVfill-rule
p1232
Vevenodd
p1233
sVfill-opacity
p1234
g6
sVstroke-dashoffset
p1235
g14
sVstroke
p1236
Vnone
p1237
sVstroke-linecap
p1238
Vround
p1239
sVstroke-miterlimit
p1240
g20
sVstroke-dasharray
p1241
Vnone
p1242
sVstroke-width
p1243
V2.07500005
p1244
sVfill
p1245
V#ffff00
p1246
ssI62
(dp1247
Vopacity
p1248
g6
sVstroke-linejoin
p1249
Vmiter
p1250
sVstroke-opacity
p1251
g6
sVfill-rule
p1252
Vevenodd
p1253
sVfill-opacity
p1254
g6
sVstroke-dashoffset
p1255
g14
sVstroke
p1256
Vnone
p1257
sVstroke-linecap
p1258
Vround
p1259
sVstroke-miterlimit
p1260
g20
sVstroke-dasharray
p1261
Vnone
p1262
sVstroke-width
p1263
V2.07500005
p1264
sVfill
p1265
V#ffff00
p1266
ssI63
(dp1267
Vopacity
p1268
g6
sVstroke-linejoin
p1269
Vmiter
p1270
sVstroke-opacity
p1271
g6
sVfill-rule
p1272
Vevenodd
p1273
sVfill-opacity
p1274
g6
sVstroke-dashoffset
p1275
g14
sVstroke
p1276
Vnone
p1277
sVstroke-linecap
p1278
Vround
p1279
sVstroke-miterlimit
p1280
g20
sVstroke-dasharray
p1281
Vnone
p1282
sVstroke-width
p1283
V2.07500005
p1284
sVfill
p1285
V#ffff00
p1286
ssI64
(dp1287
Vopacity
p1288
g6
sVstroke-linejoin
p1289
Vmiter
p1290
sVstroke-opacity
p1291
g6
sVfill-rule
p1292
Vevenodd
p1293
sVfill-opacity
p1294
g6
sVstroke-dashoffset
p1295
g14
sVstroke
p1296
Vnone
p1297
sVstroke-linecap
p1298
Vround
p1299
sVstroke-miterlimit
p1300
g20
sVstroke-dasharray
p1301
Vnone
p1302
sVstroke-width
p1303
V2.07500005
p1304
sVfill
p1305
V#ffff00
p1306
ssI65
(dp1307
Vopacity
p1308
g6
sVstroke-linejoin
p1309
Vmiter
p1310
sVstroke-opacity
p1311
g6
sVfill-rule
p1312
Vevenodd
p1313
sVfill-opacity
p1314
g6
sVstroke-dashoffset
p1315
g14
sVstroke
p1316
Vnone
p1317
sVstroke-linecap
p1318
Vround
p1319
sVstroke-miterlimit
p1320
g20
sVstroke-dasharray
p1321
Vnone
p1322
sVstroke-width
p1323
V2.07500005
p1324
sVfill
p1325
V#ffff00
p1326
ssI66
(dp1327
Vopacity
p1328
g6
sVstroke-linejoin
p1329
Vmiter
p1330
sVstroke-opacity
p1331
g6
sVfill-rule
p1332
Vevenodd
p1333
sVfill-opacity
p1334
g6
sVstroke-dashoffset
p1335
g14
sVstroke
p1336
Vnone
p1337
sVstroke-linecap
p1338
Vround
p1339
sVstroke-miterlimit
p1340
g20
sVstroke-dasharray
p1341
Vnone
p1342
sVstroke-width
p1343
V2.07500005
p1344
sVfill
p1345
V#ffff00
p1346
ssI67
(dp1347
Vopacity
p1348
g6
sVstroke-linejoin
p1349
Vmiter
p1350
sVstroke-opacity
p1351
g6
sVfill-rule
p1352
Vevenodd
p1353
sVfill-opacity
p1354
g6
sVstroke-dashoffset
p1355
g14
sVstroke
p1356
Vnone
p1357
sVstroke-linecap
p1358
Vround
p1359
sVstroke-miterlimit
p1360
g20
sVstroke-dasharray
p1361
Vnone
p1362
sVstroke-width
p1363
V2.07500005
p1364
sVfill
p1365
V#ffff00
p1366
ssI68
(dp1367
Vopacity
p1368
g6
sVstroke-linejoin
p1369
Vmiter
p1370
sVstroke-opacity
p1371
g6
sVfill-rule
p1372
Vevenodd
p1373
sVfill-opacity
p1374
g6
sVstroke-dashoffset
p1375
g14
sVstroke
p1376
Vnone
p1377
sVstroke-linecap
p1378
Vround
p1379
sVstroke-miterlimit
p1380
g20
sVstroke-dasharray
p1381
Vnone
p1382
sVstroke-width
p1383
V2.07500005
p1384
sVfill
p1385
V#ffff00
p1386
ssI69
(dp1387
Vopacity
p1388
g6
sVstroke-linejoin
p1389
Vmiter
p1390
sVstroke-opacity
p1391
g6
sVfill-rule
p1392
Vevenodd
p1393
sVfill-opacity
p1394
g6
sVstroke-dashoffset
p1395
g14
sVstroke
p1396
Vnone
p1397
sVstroke-linecap
p1398
Vround
p1399
sVstroke-miterlimit
p1400
g20
sVstroke-dasharray
p1401
Vnone
p1402
sVstroke-width
p1403
V2.07500005
p1404
sVfill
p1405
V#ffff00
p1406
ssI70
(dp1407
Vopacity
p1408
g6
sVstroke-linejoin
p1409
Vmiter
p1410
sVstroke-opacity
p1411
g6
sVfill-rule
p1412
Vevenodd
p1413
sVfill-opacity
p1414
g6
sVstroke-dashoffset
p1415
g14
sVstroke
p1416
Vnone
p1417
sVstroke-linecap
p1418
Vround
p1419
sVstroke-miterlimit
p1420
g20
sVstroke-dasharray
p1421
Vnone
p1422
sVstroke-width
p1423
V2.07500005
p1424
sVfill
p1425
V#ffff00
p1426
ssI71
(dp1427
Vopacity
p1428
g6
sVstroke-linejoin
p1429
Vmiter
p1430
sVstroke-opacity
p1431
g6
sVfill-rule
p1432
Vevenodd
p1433
sVfill-opacity
p1434
g6
sVstroke-dashoffset
p1435
g14
sVstroke
p1436
Vnone
p1437
sVstroke-linecap
p1438
Vround
p1439
sVstroke-miterlimit
p1440
g20
sVstroke-dasharray
p1441
Vnone
p1442
sVstroke-width
p1443
V2.07500005
p1444
sVfill
p1445
V#ffff00
p1446
ssI72
(dp1447
Vopacity
p1448
g6
sVstroke-linejoin
p1449
Vmiter
p1450
sVstroke-opacity
p1451
g6
sVfill-rule
p1452
Vevenodd
p1453
sVfill-opacity
p1454
g6
sVstroke-dashoffset
p1455
g14
sVstroke
p1456
Vnone
p1457
sVstroke-linecap
p1458
Vround
p1459
sVstroke-miterlimit
p1460
g20
sVstroke-dasharray
p1461
Vnone
p1462
sVstroke-width
p1463
V2.07500005
p1464
sVfill
p1465
V#ffff00
p1466
ssI73
(dp1467
Vopacity
p1468
g6
sVstroke-linejoin
p1469
Vmiter
p1470
sVstroke-opacity
p1471
g6
sVfill-rule
p1472
Vevenodd
p1473
sVfill-opacity
p1474
g6
sVstroke-dashoffset
p1475
g14
sVstroke
p1476
Vnone
p1477
sVstroke-linecap
p1478
Vround
p1479
sVstroke-miterlimit
p1480
g20
sVstroke-dasharray
p1481
Vnone
p1482
sVstroke-width
p1483
V2.07500005
p1484
sVfill
p1485
V#ffff00
p1486
ssI74
(dp1487
Vopacity
p1488
g6
sVstroke-linejoin
p1489
Vmiter
p1490
sVstroke-opacity
p1491
g6
sVfill-rule
p1492
Vevenodd
p1493
sVfill-opacity
p1494
g6
sVstroke-dashoffset
p1495
g14
sVstroke
p1496
Vnone
p1497
sVstroke-linecap
p1498
Vround
p1499
sVstroke-miterlimit
p1500
g20
sVstroke-dasharray
p1501
Vnone
p1502
sVstroke-width
p1503
V2.07500005
p1504
sVfill
p1505
V#ffff00
p1506
ssI75
(dp1507
Vopacity
p1508
g6
sVstroke-linejoin
p1509
Vmiter
p1510
sVstroke-opacity
p1511
g6
sVfill-rule
p1512
Vevenodd
p1513
sVfill-opacity
p1514
g6
sVstroke-dashoffset
p1515
g14
sVstroke
p1516
Vnone
p1517
sVstroke-linecap
p1518
Vround
p1519
sVstroke-miterlimit
p1520
g20
sVstroke-dasharray
p1521
Vnone
p1522
sVstroke-width
p1523
V2.07500005
p1524
sVfill
p1525
V#ffff00
p1526
ssI76
(dp1527
Vopacity
p1528
g6
sVstroke-linejoin
p1529
Vmiter
p1530
sVstroke-opacity
p1531
g6
sVfill-rule
p1532
Vevenodd
p1533
sVfill-opacity
p1534
g6
sVstroke-dashoffset
p1535
g14
sVstroke
p1536
Vnone
p1537
sVstroke-linecap
p1538
Vround
p1539
sVstroke-miterlimit
p1540
g20
sVstroke-dasharray
p1541
Vnone
p1542
sVstroke-width
p1543
V2.07500005
p1544
sVfill
p1545
V#ffff00
p1546
ssI77
(dp1547
Vopacity
p1548
g6
sVstroke-linejoin
p1549
Vmiter
p1550
sVstroke-opacity
p1551
g6
sVfill-rule
p1552
Vevenodd
p1553
sVfill-opacity
p1554
g6
sVstroke-dashoffset
p1555
g14
sVstroke
p1556
Vnone
p1557
sVstroke-linecap
p1558
Vround
p1559
sVstroke-miterlimit
p1560
g20
sVstroke-dasharray
p1561
Vnone
p1562
sVstroke-width
p1563
V2.07500005
p1564
sVfill
p1565
V#ffff00
p1566
ssI78
(dp1567
Vopacity
p1568
g6
sVstroke-linejoin
p1569
Vmiter
p1570
sVstroke-opacity
p1571
g6
sVfill-rule
p1572
Vevenodd
p1573
sVfill-opacity
p1574
g6
sVstroke-dashoffset
p1575
g14
sVstroke
p1576
Vnone
p1577
sVstroke-linecap
p1578
Vround
p1579
sVstroke-miterlimit
p1580
g20
sVstroke-dasharray
p1581
Vnone
p1582
sVstroke-width
p1583
V2.07500005
p1584
sVfill
p1585
V#ffff00
p1586
ssI79
(dp1587
Vopacity
p1588
g6
sVstroke-linejoin
p1589
Vmiter
p1590
sVstroke-opacity
p1591
g6
sVfill-rule
p1592
Vevenodd
p1593
sVfill-opacity
p1594
g6
sVstroke-dashoffset
p1595
g14
sVstroke
p1596
Vnone
p1597
sVstroke-linecap
p1598
Vround
p1599
sVstroke-miterlimit
p1600
g20
sVstroke-dasharray
p1601
Vnone
p1602
sVstroke-width
p1603
V2.07500005
p1604
sVfill
p1605
V#ffff00
p1606
ssI80
(dp1607
Vopacity
p1608
g6
sVstroke-linejoin
p1609
Vmiter
p1610
sVstroke-opacity
p1611
g6
sVfill-rule
p1612
Vevenodd
p1613
sVfill-opacity
p1614
g6
sVstroke-dashoffset
p1615
g14
sVstroke
p1616
Vnone
p1617
sVstroke-linecap
p1618
Vround
p1619
sVstroke-miterlimit
p1620
g20
sVstroke-dasharray
p1621
Vnone
p1622
sVstroke-width
p1623
V2.07500005
p1624
sVfill
p1625
V#ffff00
p1626
ssI81
(dp1627
Vopacity
p1628
g6
sVstroke-linejoin
p1629
Vmiter
p1630
sVstroke-opacity
p1631
g6
sVfill-rule
p1632
Vevenodd
p1633
sVfill-opacity
p1634
g6
sVstroke-dashoffset
p1635
g14
sVstroke
p1636
Vnone
p1637
sVstroke-linecap
p1638
Vround
p1639
sVstroke-miterlimit
p1640
g20
sVstroke-dasharray
p1641
Vnone
p1642
sVstroke-width
p1643
V2.07500005
p1644
sVfill
p1645
V#ffff00
p1646
ssI82
(dp1647
Vopacity
p1648
g6
sVstroke-linejoin
p1649
Vmiter
p1650
sVstroke-opacity
p1651
g6
sVfill-rule
p1652
Vevenodd
p1653
sVfill-opacity
p1654
g6
sVstroke-dashoffset
p1655
g14
sVstroke
p1656
Vnone
p1657
sVstroke-linecap
p1658
Vround
p1659
sVstroke-miterlimit
p1660
g20
sVstroke-dasharray
p1661
Vnone
p1662
sVstroke-width
p1663
V2.07500005
p1664
sVfill
p1665
V#ff8100
p1666
ssI83
(dp1667
Vopacity
p1668
g6
sVstroke-linejoin
p1669
Vmiter
p1670
sVstroke-opacity
p1671
g6
sVfill-rule
p1672
Vevenodd
p1673
sVfill-opacity
p1674
g6
sVstroke-dashoffset
p1675
g14
sVstroke
p1676
Vnone
p1677
sVstroke-linecap
p1678
Vround
p1679
sVstroke-miterlimit
p1680
g20
sVstroke-dasharray
p1681
Vnone
p1682
sVstroke-width
p1683
V2.07500005
p1684
sVfill
p1685
V#ff8100
p1686
ssI84
(dp1687
Vopacity
p1688
g6
sVstroke-linejoin
p1689
Vmiter
p1690
sVstroke-opacity
p1691
g6
sVfill-rule
p1692
Vevenodd
p1693
sVfill-opacity
p1694
g6
sVstroke-dashoffset
p1695
g14
sVstroke
p1696
Vnone
p1697
sVstroke-linecap
p1698
Vround
p1699
sVstroke-miterlimit
p1700
g20
sVstroke-dasharray
p1701
Vnone
p1702
sVstroke-width
p1703
V2.07500005
p1704
sVfill
p1705
V#ff8100
p1706
ssI85
(dp1707
Vopacity
p1708
g6
sVstroke-linejoin
p1709
Vmiter
p1710
sVstroke-opacity
p1711
g6
sVfill-rule
p1712
Vevenodd
p1713
sVfill-opacity
p1714
g6
sVstroke-dashoffset
p1715
g14
sVstroke
p1716
Vnone
p1717
sVstroke-linecap
p1718
Vround
p1719
sVstroke-miterlimit
p1720
g20
sVstroke-dasharray
p1721
Vnone
p1722
sVstroke-width
p1723
V2.07500005
p1724
sVfill
p1725
V#ff8100
p1726
ssI86
(dp1727
Vopacity
p1728
g6
sVstroke-linejoin
p1729
Vmiter
p1730
sVstroke-opacity
p1731
g6
sVfill-rule
p1732
Vevenodd
p1733
sVfill-opacity
p1734
g6
sVstroke-dashoffset
p1735
g14
sVstroke
p1736
Vnone
p1737
sVstroke-linecap
p1738
Vround
p1739
sVstroke-miterlimit
p1740
g20
sVstroke-dasharray
p1741
Vnone
p1742
sVstroke-width
p1743
V2.07500005
p1744
sVfill
p1745
V#ffff00
p1746
ssI87
(dp1747
Vopacity
p1748
g6
sVstroke-linejoin
p1749
Vmiter
p1750
sVstroke-opacity
p1751
g6
sVfill-rule
p1752
Vevenodd
p1753
sVfill-opacity
p1754
g6
sVstroke-dashoffset
p1755
g14
sVstroke
p1756
Vnone
p1757
sVstroke-linecap
p1758
Vround
p1759
sVstroke-miterlimit
p1760
g20
sVstroke-dasharray
p1761
Vnone
p1762
sVstroke-width
p1763
V2.07500005
p1764
sVfill
p1765
V#ffffff
p1766
ssI88
(dp1767
Vopacity
p1768
g6
sVstroke-linejoin
p1769
Vmiter
p1770
sVstroke-opacity
p1771
g6
sVfill-rule
p1772
Vevenodd
p1773
sVfill-opacity
p1774
g6
sVstroke-dashoffset
p1775
g14
sVstroke
p1776
Vnone
p1777
sVstroke-linecap
p1778
Vround
p1779
sVstroke-miterlimit
p1780
g20
sVstroke-dasharray
p1781
Vnone
p1782
sVstroke-width
p1783
V2.07500005
p1784
sVfill
p1785
V#ffffff
p1786
ssI89
(dp1787
Vopacity
p1788
g6
sVstroke-linejoin
p1789
Vmiter
p1790
sVstroke-opacity
p1791
g6
sVfill-rule
p1792
Vevenodd
p1793
sVfill-opacity
p1794
g6
sVstroke-dashoffset
p1795
g14
sVstroke
p1796
Vnone
p1797
sVstroke-linecap
p1798
Vround
p1799
sVstroke-miterlimit
p1800
g20
sVstroke-dasharray
p1801
Vnone
p1802
sVstroke-width
p1803
V2.07500005
p1804
sVfill
p1805
V#ff0000
p1806
ssI90
(dp1807
Vopacity
p1808
g6
sVstroke-linejoin
p1809
Vmiter
p1810
sVstroke-opacity
p1811
g6
sVfill-rule
p1812
Vevenodd
p1813
sVfill-opacity
p1814
g6
sVstroke-dashoffset
p1815
g14
sVstroke
p1816
Vnone
p1817
sVstroke-linecap
p1818
Vround
p1819
sVstroke-miterlimit
p1820
g20
sVstroke-dasharray
p1821
Vnone
p1822
sVstroke-width
p1823
V2.07500005
p1824
sVfill
p1825
V#ffff00
p1826
ssI91
(dp1827
Vopacity
p1828
g6
sVstroke-linejoin
p1829
Vmiter
p1830
sVstroke-opacity
p1831
g6
sVfill-rule
p1832
Vevenodd
p1833
sVfill-opacity
p1834
g6
sVstroke-dashoffset
p1835
g14
sVstroke
p1836
Vnone
p1837
sVstroke-linecap
p1838
Vround
p1839
sVstroke-miterlimit
p1840
g20
sVstroke-dasharray
p1841
Vnone
p1842
sVstroke-width
p1843
V2.07500005
p1844
sVfill
p1845
V#ffff00
p1846
ssI92
(dp1847
Vopacity
p1848
g6
sVstroke-linejoin
p1849
Vmiter
p1850
sVstroke-opacity
p1851
g6
sVfill-rule
p1852
Vevenodd
p1853
sVfill-opacity
p1854
g6
sVstroke-dashoffset
p1855
g14
sVstroke
p1856
Vnone
p1857
sVstroke-linecap
p1858
Vround
p1859
sVstroke-miterlimit
p1860
g20
sVstroke-dasharray
p1861
Vnone
p1862
sVstroke-width
p1863
V2.07500005
p1864
sVfill
p1865
V#ffff00
p1866
ssI93
(dp1867
Vopacity
p1868
g6
sVstroke-linejoin
p1869
Vmiter
p1870
sVstroke-opacity
p1871
g6
sVfill-rule
p1872
Vevenodd
p1873
sVfill-opacity
p1874
g6
sVstroke-dashoffset
p1875
g14
sVstroke
p1876
Vnone
p1877
sVstroke-linecap
p1878
Vround
p1879
sVstroke-miterlimit
p1880
g20
sVstroke-dasharray
p1881
Vnone
p1882
sVstroke-width
p1883
V2.07500005
p1884
sVfill
p1885
V#ffff00
p1886
ssI94
(dp1887
Vopacity
p1888
g6
sVstroke-linejoin
p1889
Vmiter
p1890
sVstroke-opacity
p1891
g6
sVfill-rule
p1892
Vevenodd
p1893
sVfill-opacity
p1894
g6
sVstroke-dashoffset
p1895
g14
sVstroke
p1896
Vnone
p1897
sVstroke-linecap
p1898
Vround
p1899
sVstroke-miterlimit
p1900
g20
sVstroke-dasharray
p1901
Vnone
p1902
sVstroke-width
p1903
V2.07500005
p1904
sVfill
p1905
V#ffff00
p1906
ssI95
(dp1907
Vopacity
p1908
g6
sVstroke-linejoin
p1909
Vmiter
p1910
sVstroke-opacity
p1911
g6
sVfill-rule
p1912
Vevenodd
p1913
sVfill-opacity
p1914
g6
sVstroke-dashoffset
p1915
g14
sVstroke
p1916
Vnone
p1917
sVstroke-linecap
p1918
Vround
p1919
sVstroke-miterlimit
p1920
g20
sVstroke-dasharray
p1921
Vnone
p1922
sVstroke-width
p1923
V2.07500005
p1924
sVfill
p1925
V#ffff00
p1926
ssI96
(dp1927
Vopacity
p1928
g6
sVstroke-linejoin
p1929
Vmiter
p1930
sVstroke-opacity
p1931
g6
sVfill-rule
p1932
Vevenodd
p1933
sVfill-opacity
p1934
g6
sVstroke-dashoffset
p1935
g14
sVstroke
p1936
Vnone
p1937
sVstroke-linecap
p1938
Vround
p1939
sVstroke-miterlimit
p1940
g20
sVstroke-dasharray
p1941
Vnone
p1942
sVstroke-width
p1943
V2.07500005
p1944
sVfill
p1945
V#ffff00
p1946
ssI97
(dp1947
Vopacity
p1948
g6
sVstroke-linejoin
p1949
Vmiter
p1950
sVstroke-opacity
p1951
g6
sVfill-rule
p1952
Vevenodd
p1953
sVfill-opacity
p1954
g6
sVstroke-dashoffset
p1955
g14
sVstroke
p1956
Vnone
p1957
sVstroke-linecap
p1958
Vround
p1959
sVstroke-miterlimit
p1960
g20
sVstroke-dasharray
p1961
Vnone
p1962
sVstroke-width
p1963
V2.07500005
p1964
sVfill
p1965
V#ffff00
p1966
ssI98
(dp1967
Vopacity
p1968
g6
sVstroke-linejoin
p1969
Vmiter
p1970
sVstroke-opacity
p1971
g6
sVfill-rule
p1972
Vevenodd
p1973
sVfill-opacity
p1974
g6
sVstroke-dashoffset
p1975
g14
sVstroke
p1976
Vnone
p1977
sVstroke-linecap
p1978
Vround
p1979
sVstroke-miterlimit
p1980
g20
sVstroke-dasharray
p1981
Vnone
p1982
sVstroke-width
p1983
V2.07500005
p1984
sVfill
p1985
V#ffff00
p1986
ssI99
(dp1987
Vopacity
p1988
g6
sVstroke-linejoin
p1989
Vmiter
p1990
sVstroke-opacity
p1991
g6
sVfill-rule
p1992
Vevenodd
p1993
sVfill-opacity
p1994
g6
sVstroke-dashoffset
p1995
g14
sVstroke
p1996
Vnone
p1997
sVstroke-linecap
p1998
Vround
p1999
sVstroke-miterlimit
p2000
g20
sVstroke-dasharray
p2001
Vnone
p2002
sVstroke-width
p2003
V2.07500005
p2004
sVfill
p2005
V#ffff00
p2006
ssI100
(dp2007
Vopacity
p2008
g6
sVstroke-linejoin
p2009
Vmiter
p2010
sVstroke-opacity
p2011
g6
sVfill-rule
p2012
Vevenodd
p2013
sVfill-opacity
p2014
g6
sVstroke-dashoffset
p2015
g14
sVstroke
p2016
Vnone
p2017
sVstroke-linecap
p2018
Vround
p2019
sVstroke-miterlimit
p2020
g20
sVstroke-dasharray
p2021
Vnone
p2022
sVstroke-width
p2023
V2.07500005
p2024
sVfill
p2025
V#ffff00
p2026
ssI101
(dp2027
Vopacity
p2028
g6
sVstroke-linejoin
p2029
Vmiter
p2030
sVstroke-opacity
p2031
g6
sVfill-rule
p2032
Vevenodd
p2033
sVfill-opacity
p2034
g6
sVstroke-dashoffset
p2035
g14
sVstroke
p2036
Vnone
p2037
sVstroke-linecap
p2038
Vround
p2039
sVstroke-miterlimit
p2040
g20
sVstroke-dasharray
p2041
Vnone
p2042
sVstroke-width
p2043
V2.07500005
p2044
sVfill
p2045
V#ffff00
p2046
ssI102
(dp2047
Vopacity
p2048
g6
sVstroke-linejoin
p2049
Vmiter
p2050
sVstroke-opacity
p2051
g6
sVfill-rule
p2052
Vevenodd
p2053
sVfill-opacity
p2054
g6
sVstroke-dashoffset
p2055
g14
sVstroke
p2056
Vnone
p2057
sVstroke-linecap
p2058
Vround
p2059
sVstroke-miterlimit
p2060
g20
sVstroke-dasharray
p2061
Vnone
p2062
sVstroke-width
p2063
V2.07500005
p2064
sVfill
p2065
V#ffff00
p2066
ssI103
(dp2067
Vopacity
p2068
g6
sVstroke-linejoin
p2069
Vmiter
p2070
sVstroke-opacity
p2071
g6
sVfill-rule
p2072
Vevenodd
p2073
sVfill-opacity
p2074
g6
sVstroke-dashoffset
p2075
g14
sVstroke
p2076
Vnone
p2077
sVstroke-linecap
p2078
Vround
p2079
sVstroke-miterlimit
p2080
g20
sVstroke-dasharray
p2081
Vnone
p2082
sVstroke-width
p2083
V2.07500005
p2084
sVfill
p2085
V#ffff00
p2086
ssI104
(dp2087
Vopacity
p2088
g6
sVstroke-linejoin
p2089
Vmiter
p2090
sVstroke-opacity
p2091
g6
sVfill-rule
p2092
Vevenodd
p2093
sVfill-opacity
p2094
g6
sVstroke-dashoffset
p2095
g14
sVstroke
p2096
Vnone
p2097
sVstroke-linecap
p2098
Vround
p2099
sVstroke-miterlimit
p2100
g20
sVstroke-dasharray
p2101
Vnone
p2102
sVstroke-width
p2103
V2.07500005
p2104
sVfill
p2105
V#ffff00
p2106
ssI105
(dp2107
Vopacity
p2108
g6
sVstroke-linejoin
p2109
Vmiter
p2110
sVstroke-opacity
p2111
g6
sVfill-rule
p2112
Vevenodd
p2113
sVfill-opacity
p2114
g6
sVstroke-dashoffset
p2115
g14
sVstroke
p2116
Vnone
p2117
sVstroke-linecap
p2118
Vround
p2119
sVstroke-miterlimit
p2120
g20
sVstroke-dasharray
p2121
Vnone
p2122
sVstroke-width
p2123
V2.07500005
p2124
sVfill
p2125
V#ffff00
p2126
ssI106
(dp2127
Vopacity
p2128
g6
sVstroke-linejoin
p2129
Vmiter
p2130
sVstroke-opacity
p2131
g6
sVfill-rule
p2132
Vevenodd
p2133
sVfill-opacity
p2134
g6
sVstroke-dashoffset
p2135
g14
sVstroke
p2136
Vnone
p2137
sVstroke-linecap
p2138
Vround
p2139
sVstroke-miterlimit
p2140
g20
sVstroke-dasharray
p2141
Vnone
p2142
sVstroke-width
p2143
V2.07500005
p2144
sVfill
p2145
V#ffff00
p2146
ssI107
(dp2147
Vopacity
p2148
g6
sVstroke-linejoin
p2149
Vmiter
p2150
sVstroke-opacity
p2151
g6
sVfill-rule
p2152
Vevenodd
p2153
sVfill-opacity
p2154
g6
sVstroke-dashoffset
p2155
g14
sVstroke
p2156
Vnone
p2157
sVstroke-linecap
p2158
Vround
p2159
sVstroke-miterlimit
p2160
g20
sVstroke-dasharray
p2161
Vnone
p2162
sVstroke-width
p2163
V2.07500005
p2164
sVfill
p2165
V#ffff00
p2166
ssI108
(dp2167
Vopacity
p2168
g6
sVstroke-linejoin
p2169
Vmiter
p2170
sVstroke-opacity
p2171
g6
sVfill-rule
p2172
Vevenodd
p2173
sVfill-opacity
p2174
g6
sVstroke-dashoffset
p2175
g14
sVstroke
p2176
Vnone
p2177
sVstroke-linecap
p2178
Vround
p2179
sVstroke-miterlimit
p2180
g20
sVstroke-dasharray
p2181
Vnone
p2182
sVstroke-width
p2183
V2.07500005
p2184
sVfill
p2185
V#ffff00
p2186
ssI109
(dp2187
Vopacity
p2188
g6
sVstroke-linejoin
p2189
Vmiter
p2190
sVstroke-opacity
p2191
g6
sVfill-rule
p2192
Vevenodd
p2193
sVfill-opacity
p2194
g6
sVstroke-dashoffset
p2195
g14
sVstroke
p2196
Vnone
p2197
sVstroke-linecap
p2198
Vround
p2199
sVstroke-miterlimit
p2200
g20
sVstroke-dasharray
p2201
Vnone
p2202
sVstroke-width
p2203
V2.07500005
p2204
sVfill
p2205
V#ffff00
p2206
ssI110
(dp2207
Vopacity
p2208
g6
sVstroke-linejoin
p2209
Vmiter
p2210
sVstroke-opacity
p2211
g6
sVfill-rule
p2212
Vevenodd
p2213
sVfill-opacity
p2214
g6
sVstroke-dashoffset
p2215
g14
sVstroke
p2216
Vnone
p2217
sVstroke-linecap
p2218
Vround
p2219
sVstroke-miterlimit
p2220
g20
sVstroke-dasharray
p2221
Vnone
p2222
sVstroke-width
p2223
V2.07500005
p2224
sVfill
p2225
V#ffff00
p2226
ssI111
(dp2227
Vopacity
p2228
g6
sVstroke-linejoin
p2229
Vmiter
p2230
sVstroke-opacity
p2231
g6
sVfill-rule
p2232
Vevenodd
p2233
sVfill-opacity
p2234
g6
sVstroke-dashoffset
p2235
g14
sVstroke
p2236
Vnone
p2237
sVstroke-linecap
p2238
Vround
p2239
sVstroke-miterlimit
p2240
g20
sVstroke-dasharray
p2241
Vnone
p2242
sVstroke-width
p2243
V2.07500005
p2244
sVfill
p2245
V#ffff00
p2246
ssI112
(dp2247
Vopacity
p2248
g6
sVstroke-linejoin
p2249
Vmiter
p2250
sVstroke-opacity
p2251
g6
sVfill-rule
p2252
Vevenodd
p2253
sVfill-opacity
p2254
g6
sVstroke-dashoffset
p2255
g14
sVstroke
p2256
Vnone
p2257
sVstroke-linecap
p2258
Vround
p2259
sVstroke-miterlimit
p2260
g20
sVstroke-dasharray
p2261
Vnone
p2262
sVstroke-width
p2263
V2.07500005
p2264
sVfill
p2265
V#ffff00
p2266
ssI113
(dp2267
Vopacity
p2268
g6
sVstroke-linejoin
p2269
Vmiter
p2270
sVstroke-opacity
p2271
g6
sVfill-rule
p2272
Vevenodd
p2273
sVfill-opacity
p2274
g6
sVstroke-dashoffset
p2275
g14
sVstroke
p2276
Vnone
p2277
sVstroke-linecap
p2278
Vround
p2279
sVstroke-miterlimit
p2280
g20
sVstroke-dasharray
p2281
Vnone
p2282
sVstroke-width
p2283
V2.07500005
p2284
sVfill
p2285
V#ffff00
p2286
ssI114
(dp2287
Vopacity
p2288
g6
sVstroke-linejoin
p2289
Vmiter
p2290
sVstroke-opacity
p2291
g6
sVfill-rule
p2292
Vevenodd
p2293
sVfill-opacity
p2294
g6
sVstroke-dashoffset
p2295
g14
sVstroke
p2296
Vnone
p2297
sVstroke-linecap
p2298
Vround
p2299
sVstroke-miterlimit
p2300
g20
sVstroke-dasharray
p2301
Vnone
p2302
sVstroke-width
p2303
V2.07500005
p2304
sVfill
p2305
V#ffff00
p2306
ssI115
(dp2307
Vopacity
p2308
g6
sVstroke-linejoin
p2309
Vmiter
p2310
sVstroke-opacity
p2311
g6
sVfill-rule
p2312
Vevenodd
p2313
sVfill-opacity
p2314
g6
sVstroke-dashoffset
p2315
g14
sVstroke
p2316
Vnone
p2317
sVstroke-linecap
p2318
Vround
p2319
sVstroke-miterlimit
p2320
g20
sVstroke-dasharray
p2321
Vnone
p2322
sVstroke-width
p2323
V2.07500005
p2324
sVfill
p2325
V#ffff00
p2326
ssI116
(dp2327
Vopacity
p2328
g6
sVstroke-linejoin
p2329
Vmiter
p2330
sVstroke-opacity
p2331
g6
sVfill-rule
p2332
Vevenodd
p2333
sVfill-opacity
p2334
g6
sVstroke-dashoffset
p2335
g14
sVstroke
p2336
Vnone
p2337
sVstroke-linecap
p2338
Vround
p2339
sVstroke-miterlimit
p2340
g20
sVstroke-dasharray
p2341
Vnone
p2342
sVstroke-width
p2343
V2.07500005
p2344
sVfill
p2345
V#ffff00
p2346
ssI117
(dp2347
Vopacity
p2348
g6
sVstroke-linejoin
p2349
Vmiter
p2350
sVstroke-opacity
p2351
g6
sVfill-rule
p2352
Vevenodd
p2353
sVfill-opacity
p2354
g6
sVstroke-dashoffset
p2355
g14
sVstroke
p2356
Vnone
p2357
sVstroke-linecap
p2358
Vround
p2359
sVstroke-miterlimit
p2360
g20
sVstroke-dasharray
p2361
Vnone
p2362
sVstroke-width
p2363
V2.07500005
p2364
sVfill
p2365
V#ffff00
p2366
ssI118
(dp2367
Vopacity
p2368
g6
sVstroke-linejoin
p2369
Vmiter
p2370
sVstroke-opacity
p2371
g6
sVfill-rule
p2372
Vevenodd
p2373
sVfill-opacity
p2374
g6
sVstroke-dashoffset
p2375
g14
sVstroke
p2376
Vnone
p2377
sVstroke-linecap
p2378
Vround
p2379
sVstroke-miterlimit
p2380
g20
sVstroke-dasharray
p2381
Vnone
p2382
sVstroke-width
p2383
V2.07500005
p2384
sVfill
p2385
V#ffff00
p2386
ssI119
(dp2387
Vopacity
p2388
g6
sVstroke-linejoin
p2389
Vmiter
p2390
sVstroke-opacity
p2391
g6
sVfill-rule
p2392
Vevenodd
p2393
sVfill-opacity
p2394
g6
sVstroke-dashoffset
p2395
g14
sVstroke
p2396
Vnone
p2397
sVstroke-linecap
p2398
Vround
p2399
sVstroke-miterlimit
p2400
g20
sVstroke-dasharray
p2401
Vnone
p2402
sVstroke-width
p2403
V2.07500005
p2404
sVfill
p2405
V#ffff00
p2406
ssI120
(dp2407
Vopacity
p2408
g6
sVstroke-linejoin
p2409
Vmiter
p2410
sVstroke-opacity
p2411
g6
sVfill-rule
p2412
Vevenodd
p2413
sVfill-opacity
p2414
g6
sVstroke-dashoffset
p2415
g14
sVstroke
p2416
Vnone
p2417
sVstroke-linecap
p2418
Vround
p2419
sVstroke-miterlimit
p2420
g20
sVstroke-dasharray
p2421
Vnone
p2422
sVstroke-width
p2423
V2.07500005
p2424
sVfill
p2425
V#ffff00
p2426
ssI121
(dp2427
Vopacity
p2428
g6
sVstroke-linejoin
p2429
Vmiter
p2430
sVstroke-opacity
p2431
g6
sVfill-rule
p2432
Vevenodd
p2433
sVfill-opacity
p2434
g6
sVstroke-dashoffset
p2435
g14
sVstroke
p2436
Vnone
p2437
sVstroke-linecap
p2438
Vround
p2439
sVstroke-miterlimit
p2440
g20
sVstroke-dasharray
p2441
Vnone
p2442
sVstroke-width
p2443
V2.07500005
p2444
sVfill
p2445
V#ffff00
p2446
ssI122
(dp2447
Vopacity
p2448
g6
sVstroke-linejoin
p2449
Vmiter
p2450
sVstroke-opacity
p2451
g6
sVfill-rule
p2452
Vevenodd
p2453
sVfill-opacity
p2454
g6
sVstroke-dashoffset
p2455
g14
sVstroke
p2456
Vnone
p2457
sVstroke-linecap
p2458
Vround
p2459
sVstroke-miterlimit
p2460
g20
sVstroke-dasharray
p2461
Vnone
p2462
sVstroke-width
p2463
V2.07500005
p2464
sVfill
p2465
V#ffff00
p2466
ssI123
(dp2467
Vopacity
p2468
g6
sVstroke-linejoin
p2469
Vmiter
p2470
sVstroke-opacity
p2471
g6
sVfill-rule
p2472
Vevenodd
p2473
sVfill-opacity
p2474
g6
sVstroke-dashoffset
p2475
g14
sVstroke
p2476
Vnone
p2477
sVstroke-linecap
p2478
Vround
p2479
sVstroke-miterlimit
p2480
g20
sVstroke-dasharray
p2481
Vnone
p2482
sVstroke-width
p2483
V2.07500005
p2484
sVfill
p2485
V#ffff00
p2486
ssI124
(dp2487
Vopacity
p2488
g6
sVstroke-linejoin
p2489
Vmiter
p2490
sVstroke-opacity
p2491
g6
sVfill-rule
p2492
Vevenodd
p2493
sVfill-opacity
p2494
g6
sVstroke-dashoffset
p2495
g14
sVstroke
p2496
Vnone
p2497
sVstroke-linecap
p2498
Vround
p2499
sVstroke-miterlimit
p2500
g20
sVstroke-dasharray
p2501
Vnone
p2502
sVstroke-width
p2503
V2.07500005
p2504
sVfill
p2505
V#ffff00
p2506
ssI125
(dp2507
Vopacity
p2508
g6
sVstroke-linejoin
p2509
Vmiter
p2510
sVstroke-opacity
p2511
g6
sVfill-rule
p2512
Vevenodd
p2513
sVfill-opacity
p2514
g6
sVstroke-dashoffset
p2515
g14
sVstroke
p2516
Vnone
p2517
sVstroke-linecap
p2518
Vround
p2519
sVstroke-miterlimit
p2520
g20
sVstroke-dasharray
p2521
Vnone
p2522
sVstroke-width
p2523
V2.07500005
p2524
sVfill
p2525
V#ff0000
p2526
ssI126
(dp2527
Vopacity
p2528
g6
sVstroke-linejoin
p2529
Vmiter
p2530
sVstroke-opacity
p2531
g6
sVfill-rule
p2532
Vevenodd
p2533
sVfill-opacity
p2534
g6
sVstroke-dashoffset
p2535
g14
sVstroke
p2536
Vnone
p2537
sVstroke-linecap
p2538
Vround
p2539
sVstroke-miterlimit
p2540
g20
sVstroke-dasharray
p2541
Vnone
p2542
sVstroke-width
p2543
V2.07500005
p2544
sVfill
p2545
V#0000ff
p2546
ssI127
(dp2547
Vopacity
p2548
g6
sVstroke-linejoin
p2549
Vmiter
p2550
sVstroke-opacity
p2551
g6
sVfill-rule
p2552
Vevenodd
p2553
sVfill-opacity
p2554
g6
sVstroke-dashoffset
p2555
g14
sVstroke
p2556
Vnone
p2557
sVstroke-linecap
p2558
Vround
p2559
sVstroke-miterlimit
p2560
g20
sVstroke-dasharray
p2561
Vnone
p2562
sVstroke-width
p2563
V2.07500005
p2564
sVfill
p2565
V#ff0000
p2566
ssI128
(dp2567
Vopacity
p2568
g6
sVstroke-linejoin
p2569
Vmiter
p2570
sVstroke-opacity
p2571
g6
sVfill-rule
p2572
Vevenodd
p2573
sVfill-opacity
p2574
g6
sVstroke-dashoffset
p2575
g14
sVstroke
p2576
Vnone
p2577
sVstroke-linecap
p2578
Vround
p2579
sVstroke-miterlimit
p2580
g20
sVstroke-dasharray
p2581
Vnone
p2582
sVstroke-width
p2583
V2.07500005
p2584
sVfill
p2585
V#0000ff
p2586
ssI129
(dp2587
Vopacity
p2588
g6
sVstroke-linejoin
p2589
Vmiter
p2590
sVstroke-opacity
p2591
g6
sVfill-rule
p2592
Vevenodd
p2593
sVfill-opacity
p2594
g6
sVstroke-dashoffset
p2595
g14
sVstroke
p2596
Vnone
p2597
sVstroke-linecap
p2598
Vround
p2599
sVstroke-miterlimit
p2600
g20
sVstroke-dasharray
p2601
Vnone
p2602
sVstroke-width
p2603
V2.07500005
p2604
sVfill
p2605
V#ff0000
p2606
ssI130
(dp2607
Vopacity
p2608
g6
sVstroke-linejoin
p2609
Vmiter
p2610
sVstroke-opacity
p2611
g6
sVfill-rule
p2612
Vevenodd
p2613
sVfill-opacity
p2614
g6
sVstroke-dashoffset
p2615
g14
sVstroke
p2616
Vnone
p2617
sVstroke-linecap
p2618
Vround
p2619
sVstroke-miterlimit
p2620
g20
sVstroke-dasharray
p2621
Vnone
p2622
sVstroke-width
p2623
V2.07500005
p2624
sVfill
p2625
V#0000ff
p2626
ssI131
(dp2627
Vopacity
p2628
g6
sVstroke-linejoin
p2629
Vmiter
p2630
sVstroke-opacity
p2631
g6
sVfill-rule
p2632
Vevenodd
p2633
sVfill-opacity
p2634
g6
sVstroke-dashoffset
p2635
g14
sVstroke
p2636
Vnone
p2637
sVstroke-linecap
p2638
Vround
p2639
sVstroke-miterlimit
p2640
g20
sVstroke-dasharray
p2641
Vnone
p2642
sVstroke-width
p2643
V2.07500005
p2644
sVfill
p2645
V#ff0000
p2646
ssI132
(dp2647
Vopacity
p2648
g6
sVstroke-linejoin
p2649
Vmiter
p2650
sVstroke-opacity
p2651
g6
sVfill-rule
p2652
Vevenodd
p2653
sVfill-opacity
p2654
g6
sVstroke-dashoffset
p2655
g14
sVstroke
p2656
Vnone
p2657
sVstroke-linecap
p2658
Vround
p2659
sVstroke-miterlimit
p2660
g20
sVstroke-dasharray
p2661
Vnone
p2662
sVstroke-width
p2663
V2.07500005
p2664
sVfill
p2665
V#0000ff
p2666
ssI133
(dp2667
Vopacity
p2668
g6
sVstroke-linejoin
p2669
Vmiter
p2670
sVstroke-opacity
p2671
g6
sVfill-rule
p2672
Vevenodd
p2673
sVfill-opacity
p2674
g6
sVstroke-dashoffset
p2675
g14
sVstroke
p2676
Vnone
p2677
sVstroke-linecap
p2678
Vround
p2679
sVstroke-miterlimit
p2680
g20
sVstroke-dasharray
p2681
Vnone
p2682
sVstroke-width
p2683
V2.07500005
p2684
sVfill
p2685
V#ff0000
p2686
ssI134
(dp2687
Vopacity
p2688
g6
sVstroke-linejoin
p2689
Vmiter
p2690
sVstroke-opacity
p2691
g6
sVfill-rule
p2692
Vevenodd
p2693
sVfill-opacity
p2694
g6
sVstroke-dashoffset
p2695
g14
sVstroke
p2696
Vnone
p2697
sVstroke-linecap
p2698
Vround
p2699
sVstroke-miterlimit
p2700
g20
sVstroke-dasharray
p2701
Vnone
p2702
sVstroke-width
p2703
V2.07500005
p2704
sVfill
p2705
V#0000ff
p2706
ssI135
(dp2707
Vopacity
p2708
g6
sVstroke-linejoin
p2709
Vmiter
p2710
sVstroke-opacity
p2711
g6
sVfill-rule
p2712
Vevenodd
p2713
sVfill-opacity
p2714
g6
sVstroke-dashoffset
p2715
g14
sVstroke
p2716
Vnone
p2717
sVstroke-linecap
p2718
Vround
p2719
sVstroke-miterlimit
p2720
g20
sVstroke-dasharray
p2721
Vnone
p2722
sVstroke-width
p2723
V2.07500005
p2724
sVfill
p2725
V#ff0000
p2726
ssI136
(dp2727
Vopacity
p2728
g6
sVstroke-linejoin
p2729
Vmiter
p2730
sVstroke-opacity
p2731
g6
sVfill-rule
p2732
Vevenodd
p2733
sVfill-opacity
p2734
g6
sVstroke-dashoffset
p2735
g14
sVstroke
p2736
Vnone
p2737
sVstroke-linecap
p2738
Vround
p2739
sVstroke-miterlimit
p2740
g20
sVstroke-dasharray
p2741
Vnone
p2742
sVstroke-width
p2743
V2.07500005
p2744
sVfill
p2745
V#0000ff
p2746
ssI137
(dp2747
Vopacity
p2748
g6
sVstroke-linejoin
p2749
Vmiter
p2750
sVstroke-opacity
p2751
g6
sVfill-rule
p2752
Vevenodd
p2753
sVfill-opacity
p2754
g6
sVstroke-dashoffset
p2755
g14
sVstroke
p2756
Vnone
p2757
sVstroke-linecap
p2758
Vround
p2759
sVstroke-miterlimit
p2760
g20
sVstroke-dasharray
p2761
Vnone
p2762
sVstroke-width
p2763
V2.07500005
p2764
sVfill
p2765
V#0000ff
p2766
ssI138
(dp2767
Vopacity
p2768
g6
sVstroke-linejoin
p2769
Vmiter
p2770
sVstroke-opacity
p2771
g6
sVfill-rule
p2772
Vevenodd
p2773
sVfill-opacity
p2774
g6
sVstroke-dashoffset
p2775
g14
sVstroke
p2776
Vnone
p2777
sVstroke-linecap
p2778
Vround
p2779
sVstroke-miterlimit
p2780
g20
sVstroke-dasharray
p2781
Vnone
p2782
sVstroke-width
p2783
V2.07500005
p2784
sVfill
p2785
V#ff0000
p2786
ssI139
(dp2787
Vopacity
p2788
g6
sVstroke-linejoin
p2789
Vmiter
p2790
sVstroke-opacity
p2791
g6
sVfill-rule
p2792
Vevenodd
p2793
sVfill-opacity
p2794
g6
sVstroke-dashoffset
p2795
g14
sVstroke
p2796
Vnone
p2797
sVstroke-linecap
p2798
Vround
p2799
sVstroke-miterlimit
p2800
g20
sVstroke-dasharray
p2801
Vnone
p2802
sVstroke-width
p2803
V2.07500005
p2804
sVfill
p2805
V#ff0000
p2806
ssI140
(dp2807
Vopacity
p2808
g6
sVstroke-linejoin
p2809
Vmiter
p2810
sVstroke-opacity
p2811
g6
sVfill-rule
p2812
Vevenodd
p2813
sVfill-opacity
p2814
g6
sVstroke-dashoffset
p2815
g14
sVstroke
p2816
Vnone
p2817
sVstroke-linecap
p2818
Vround
p2819
sVstroke-miterlimit
p2820
g20
sVstroke-dasharray
p2821
Vnone
p2822
sVstroke-width
p2823
V2.07500005
p2824
sVfill
p2825
V#ff0000
p2826
ssI141
(dp2827
Vopacity
p2828
g6
sVstroke-linejoin
p2829
Vmiter
p2830
sVstroke-opacity
p2831
g6
sVfill-rule
p2832
Vevenodd
p2833
sVfill-opacity
p2834
g6
sVstroke-dashoffset
p2835
g14
sVstroke
p2836
Vnone
p2837
sVstroke-linecap
p2838
Vround
p2839
sVstroke-miterlimit
p2840
g20
sVstroke-dasharray
p2841
Vnone
p2842
sVstroke-width
p2843
V2.07500005
p2844
sVfill
p2845
V#0000ff
p2846
ssI142
(dp2847
Vopacity
p2848
g6
sVstroke-linejoin
p2849
Vmiter
p2850
sVstroke-opacity
p2851
g6
sVfill-rule
p2852
Vevenodd
p2853
sVfill-opacity
p2854
g6
sVstroke-dashoffset
p2855
g14
sVstroke
p2856
Vnone
p2857
sVstroke-linecap
p2858
Vround
p2859
sVstroke-miterlimit
p2860
g20
sVstroke-dasharray
p2861
Vnone
p2862
sVstroke-width
p2863
V2.07500005
p2864
sVfill
p2865
V#0000ff
p2866
ssI143
(dp2867
Vopacity
p2868
g6
sVstroke-linejoin
p2869
Vmiter
p2870
sVstroke-opacity
p2871
g6
sVfill-rule
p2872
Vevenodd
p2873
sVfill-opacity
p2874
g6
sVstroke-dashoffset
p2875
g14
sVstroke
p2876
Vnone
p2877
sVstroke-linecap
p2878
Vround
p2879
sVstroke-miterlimit
p2880
g20
sVstroke-dasharray
p2881
Vnone
p2882
sVstroke-width
p2883
V2.07500005
p2884
sVfill
p2885
V#0000ff
p2886
ssI144
(dp2887
Vopacity
p2888
g6
sVstroke-linejoin
p2889
Vmiter
p2890
sVstroke-opacity
p2891
g6
sVfill-rule
p2892
Vevenodd
p2893
sVfill-opacity
p2894
g6
sVstroke-dashoffset
p2895
g14
sVstroke
p2896
Vnone
p2897
sVstroke-linecap
p2898
Vround
p2899
sVstroke-miterlimit
p2900
g20
sVstroke-dasharray
p2901
Vnone
p2902
sVstroke-width
p2903
V2.07500005
p2904
sVfill
p2905
V#0000ff
p2906
ssI145
(dp2907
Vopacity
p2908
g6
sVstroke-linejoin
p2909
Vmiter
p2910
sVstroke-opacity
p2911
g6
sVfill-rule
p2912
Vevenodd
p2913
sVfill-opacity
p2914
g6
sVstroke-dashoffset
p2915
g14
sVstroke
p2916
Vnone
p2917
sVstroke-linecap
p2918
Vround
p2919
sVstroke-miterlimit
p2920
g20
sVstroke-dasharray
p2921
Vnone
p2922
sVstroke-width
p2923
V2.07500005
p2924
sVfill
p2925
V#ff0000
p2926
ssI146
(dp2927
Vopacity
p2928
g6
sVstroke-linejoin
p2929
Vmiter
p2930
sVstroke-opacity
p2931
g6
sVfill-rule
p2932
Vevenodd
p2933
sVfill-opacity
p2934
g6
sVstroke-dashoffset
p2935
g14
sVstroke
p2936
Vnone
p2937
sVstroke-linecap
p2938
Vround
p2939
sVstroke-miterlimit
p2940
g20
sVstroke-dasharray
p2941
Vnone
p2942
sVstroke-width
p2943
V2.07500005
p2944
sVfill
p2945
V#ff0000
p2946
ssI147
(dp2947
Vopacity
p2948
g6
sVstroke-linejoin
p2949
Vmiter
p2950
sVstroke-opacity
p2951
g6
sVfill-rule
p2952
Vevenodd
p2953
sVfill-opacity
p2954
g6
sVstroke-dashoffset
p2955
g14
sVstroke
p2956
Vnone
p2957
sVstroke-linecap
p2958
Vround
p2959
sVstroke-miterlimit
p2960
g20
sVstroke-dasharray
p2961
Vnone
p2962
sVstroke-width
p2963
V2.07500005
p2964
sVfill
p2965
V#0000ff
p2966
ssI148
(dp2967
Vopacity
p2968
g6
sVstroke-linejoin
p2969
Vmiter
p2970
sVstroke-opacity
p2971
g6
sVfill-rule
p2972
Vevenodd
p2973
sVfill-opacity
p2974
g6
sVstroke-dashoffset
p2975
g14
sVstroke
p2976
Vnone
p2977
sVstroke-linecap
p2978
Vround
p2979
sVstroke-miterlimit
p2980
g20
sVstroke-dasharray
p2981
Vnone
p2982
sVstroke-width
p2983
V2.07500005
p2984
sVfill
p2985
V#ff0000
p2986
ssI149
(dp2987
Vopacity
p2988
g6
sVstroke-linejoin
p2989
Vmiter
p2990
sVstroke-opacity
p2991
g6
sVfill-rule
p2992
Vevenodd
p2993
sVfill-opacity
p2994
g6
sVstroke-dashoffset
p2995
g14
sVstroke
p2996
Vnone
p2997
sVstroke-linecap
p2998
Vround
p2999
sVstroke-miterlimit
p3000
g20
sVstroke-dasharray
p3001
Vnone
p3002
sVstroke-width
p3003
V2.07500005
p3004
sVfill
p3005
V#0000ff
p3006
ssI150
(dp3007
Vopacity
p3008
g6
sVstroke-linejoin
p3009
Vmiter
p3010
sVstroke-opacity
p3011
g6
sVfill-rule
p3012
Vevenodd
p3013
sVfill-opacity
p3014
g6
sVstroke-dashoffset
p3015
g14
sVstroke
p3016
Vnone
p3017
sVstroke-linecap
p3018
Vround
p3019
sVstroke-miterlimit
p3020
g20
sVstroke-dasharray
p3021
Vnone
p3022
sVstroke-width
p3023
V2.07500005
p3024
sVfill
p3025
V#ff0000
p3026
ssI151
(dp3027
Vopacity
p3028
g6
sVstroke-linejoin
p3029
Vmiter
p3030
sVstroke-opacity
p3031
g6
sVfill-rule
p3032
Vevenodd
p3033
sVfill-opacity
p3034
g6
sVstroke-dashoffset
p3035
g14
sVstroke
p3036
Vnone
p3037
sVstroke-linecap
p3038
Vround
p3039
sVstroke-miterlimit
p3040
g20
sVstroke-dasharray
p3041
Vnone
p3042
sVstroke-width
p3043
V2.07500005
p3044
sVfill
p3045
V#0000ff
p3046
ssI152
(dp3047
Vopacity
p3048
g6
sVstroke-linejoin
p3049
Vmiter
p3050
sVstroke-opacity
p3051
g6
sVfill-rule
p3052
Vevenodd
p3053
sVfill-opacity
p3054
g6
sVstroke-dashoffset
p3055
g14
sVstroke
p3056
Vnone
p3057
sVstroke-linecap
p3058
Vround
p3059
sVstroke-miterlimit
p3060
g20
sVstroke-dasharray
p3061
Vnone
p3062
sVstroke-width
p3063
V2.07500005
p3064
sVfill
p3065
V#ff0000
p3066
ssI153
(dp3067
Vopacity
p3068
g6
sVstroke-linejoin
p3069
Vmiter
p3070
sVstroke-opacity
p3071
g6
sVfill-rule
p3072
Vevenodd
p3073
sVfill-opacity
p3074
g6
sVstroke-dashoffset
p3075
g14
sVstroke
p3076
Vnone
p3077
sVstroke-linecap
p3078
Vround
p3079
sVstroke-miterlimit
p3080
g20
sVstroke-dasharray
p3081
Vnone
p3082
sVstroke-width
p3083
V2.07500005
p3084
sVfill
p3085
V#0000ff
p3086
ssI154
(dp3087
Vopacity
p3088
g6
sVstroke-linejoin
p3089
Vmiter
p3090
sVstroke-opacity
p3091
g6
sVfill-rule
p3092
Vevenodd
p3093
sVfill-opacity
p3094
g6
sVstroke-dashoffset
p3095
g14
sVstroke
p3096
Vnone
p3097
sVstroke-linecap
p3098
Vround
p3099
sVstroke-miterlimit
p3100
g20
sVstroke-dasharray
p3101
Vnone
p3102
sVstroke-width
p3103
V2.07500005
p3104
sVfill
p3105
V#0000ff
p3106
ssI155
(dp3107
Vopacity
p3108
g6
sVstroke-linejoin
p3109
Vmiter
p3110
sVstroke-opacity
p3111
g6
sVfill-rule
p3112
Vevenodd
p3113
sVfill-opacity
p3114
g6
sVstroke-dashoffset
p3115
g14
sVstroke
p3116
Vnone
p3117
sVstroke-linecap
p3118
Vround
p3119
sVstroke-miterlimit
p3120
g20
sVstroke-dasharray
p3121
Vnone
p3122
sVstroke-width
p3123
V2.07500005
p3124
sVfill
p3125
V#ff0000
p3126
ssI156
(dp3127
Vopacity
p3128
g6
sVstroke-linejoin
p3129
Vmiter
p3130
sVstroke-opacity
p3131
g6
sVfill-rule
p3132
Vevenodd
p3133
sVfill-opacity
p3134
g6
sVstroke-dashoffset
p3135
g14
sVstroke
p3136
Vnone
p3137
sVstroke-linecap
p3138
Vround
p3139
sVstroke-miterlimit
p3140
g20
sVstroke-dasharray
p3141
Vnone
p3142
sVstroke-width
p3143
V2.07500005
p3144
sVfill
p3145
V#0000ff
p3146
ssI157
(dp3147
Vopacity
p3148
g6
sVstroke-linejoin
p3149
Vmiter
p3150
sVstroke-opacity
p3151
g6
sVfill-rule
p3152
Vevenodd
p3153
sVfill-opacity
p3154
g6
sVstroke-dashoffset
p3155
g14
sVstroke
p3156
Vnone
p3157
sVstroke-linecap
p3158
Vround
p3159
sVstroke-miterlimit
p3160
g20
sVstroke-dasharray
p3161
Vnone
p3162
sVstroke-width
p3163
V2.07500005
p3164
sVfill
p3165
V#ff0000
p3166
ssI158
(dp3167
Vopacity
p3168
g6
sVstroke-linejoin
p3169
Vmiter
p3170
sVstroke-opacity
p3171
g6
sVfill-rule
p3172
Vevenodd
p3173
sVfill-opacity
p3174
g6
sVstroke-dashoffset
p3175
g14
sVstroke
p3176
Vnone
p3177
sVstroke-linecap
p3178
Vround
p3179
sVstroke-miterlimit
p3180
g20
sVstroke-dasharray
p3181
Vnone
p3182
sVstroke-width
p3183
V2.07500005
p3184
sVfill
p3185
V#ff0000
p3186
ssI159
(dp3187
Vopacity
p3188
g6
sVstroke-linejoin
p3189
Vmiter
p3190
sVstroke-opacity
p3191
g6
sVfill-rule
p3192
Vevenodd
p3193
sVfill-opacity
p3194
g6
sVstroke-dashoffset
p3195
g14
sVstroke
p3196
Vnone
p3197
sVstroke-linecap
p3198
Vround
p3199
sVstroke-miterlimit
p3200
g20
sVstroke-dasharray
p3201
Vnone
p3202
sVstroke-width
p3203
V2.07500005
p3204
sVfill
p3205
V#0000ff
p3206
ssI160
(dp3207
Vopacity
p3208
g6
sVstroke-linejoin
p3209
Vmiter
p3210
sVstroke-opacity
p3211
g6
sVfill-rule
p3212
Vevenodd
p3213
sVfill-opacity
p3214
g6
sVstroke-dashoffset
p3215
g14
sVstroke
p3216
Vnone
p3217
sVstroke-linecap
p3218
Vround
p3219
sVstroke-miterlimit
p3220
g20
sVstroke-dasharray
p3221
Vnone
p3222
sVstroke-width
p3223
V2.07500005
p3224
sVfill
p3225
V#0000ff
p3226
ssI161
(dp3227
Vopacity
p3228
g6
sVstroke-linejoin
p3229
Vmiter
p3230
sVstroke-opacity
p3231
g6
sVfill-rule
p3232
Vevenodd
p3233
sVfill-opacity
p3234
g6
sVstroke-dashoffset
p3235
g14
sVstroke
p3236
Vnone
p3237
sVstroke-linecap
p3238
Vround
p3239
sVstroke-miterlimit
p3240
g20
sVstroke-dasharray
p3241
Vnone
p3242
sVstroke-width
p3243
V2.07500005
p3244
sVfill
p3245
V#0000ff
p3246
ssI162
(dp3247
Vopacity
p3248
g6
sVstroke-linejoin
p3249
Vmiter
p3250
sVstroke-opacity
p3251
g6
sVfill-rule
p3252
Vevenodd
p3253
sVfill-opacity
p3254
g6
sVstroke-dashoffset
p3255
g14
sVstroke
p3256
Vnone
p3257
sVstroke-linecap
p3258
Vround
p3259
sVstroke-miterlimit
p3260
g20
sVstroke-dasharray
p3261
Vnone
p3262
sVstroke-width
p3263
V2.07500005
p3264
sVfill
p3265
V#ff0000
p3266
ssI163
(dp3267
Vopacity
p3268
g6
sVstroke-linejoin
p3269
Vmiter
p3270
sVstroke-opacity
p3271
g6
sVfill-rule
p3272
Vevenodd
p3273
sVfill-opacity
p3274
g6
sVstroke-dashoffset
p3275
g14
sVstroke
p3276
Vnone
p3277
sVstroke-linecap
p3278
Vround
p3279
sVstroke-miterlimit
p3280
g20
sVstroke-dasharray
p3281
Vnone
p3282
sVstroke-width
p3283
V2.07500005
p3284
sVfill
p3285
V#0000ff
p3286
ssI164
(dp3287
Vopacity
p3288
g6
sVstroke-linejoin
p3289
Vmiter
p3290
sVstroke-opacity
p3291
g6
sVfill-rule
p3292
Vevenodd
p3293
sVfill-opacity
p3294
g6
sVstroke-dashoffset
p3295
g14
sVstroke
p3296
Vnone
p3297
sVstroke-linecap
p3298
Vround
p3299
sVstroke-miterlimit
p3300
g20
sVstroke-dasharray
p3301
Vnone
p3302
sVstroke-width
p3303
V2.07500005
p3304
sVfill
p3305
V#ff0000
p3306
ssI165
(dp3307
Vopacity
p3308
g6
sVstroke-linejoin
p3309
Vmiter
p3310
sVstroke-opacity
p3311
g6
sVfill-rule
p3312
Vevenodd
p3313
sVfill-opacity
p3314
g6
sVstroke-dashoffset
p3315
g14
sVstroke
p3316
Vnone
p3317
sVstroke-linecap
p3318
Vround
p3319
sVstroke-miterlimit
p3320
g20
sVstroke-dasharray
p3321
Vnone
p3322
sVstroke-width
p3323
V2.07500005
p3324
sVfill
p3325
V#0000ff
p3326
ssI166
(dp3327
Vopacity
p3328
g6
sVstroke-linejoin
p3329
Vmiter
p3330
sVstroke-opacity
p3331
g6
sVfill-rule
p3332
Vevenodd
p3333
sVfill-opacity
p3334
g6
sVstroke-dashoffset
p3335
g14
sVstroke
p3336
Vnone
p3337
sVstroke-linecap
p3338
Vround
p3339
sVstroke-miterlimit
p3340
g20
sVstroke-dasharray
p3341
Vnone
p3342
sVstroke-width
p3343
V2.07500005
p3344
sVfill
p3345
V#0000ff
p3346
ssI167
(dp3347
Vopacity
p3348
g6
sVstroke-linejoin
p3349
Vmiter
p3350
sVstroke-opacity
p3351
g6
sVfill-rule
p3352
Vevenodd
p3353
sVfill-opacity
p3354
g6
sVstroke-dashoffset
p3355
g14
sVstroke
p3356
Vnone
p3357
sVstroke-linecap
p3358
Vround
p3359
sVstroke-miterlimit
p3360
g20
sVstroke-dasharray
p3361
Vnone
p3362
sVstroke-width
p3363
V2.07500005
p3364
sVfill
p3365
V#ff0000
p3366
ssI168
(dp3367
Vopacity
p3368
g6
sVstroke-linejoin
p3369
Vmiter
p3370
sVstroke-opacity
p3371
g6
sVfill-rule
p3372
Vevenodd
p3373
sVfill-opacity
p3374
g6
sVstroke-dashoffset
p3375
g14
sVstroke
p3376
Vnone
p3377
sVstroke-linecap
p3378
Vround
p3379
sVstroke-miterlimit
p3380
g20
sVstroke-dasharray
p3381
Vnone
p3382
sVstroke-width
p3383
V2.07500005
p3384
sVfill
p3385
V#ff0000
p3386
ssI169
(dp3387
Vopacity
p3388
g6
sVstroke-linejoin
p3389
Vmiter
p3390
sVstroke-opacity
p3391
g6
sVfill-rule
p3392
Vevenodd
p3393
sVfill-opacity
p3394
g6
sVstroke-dashoffset
p3395
g14
sVstroke
p3396
Vnone
p3397
sVstroke-linecap
p3398
Vround
p3399
sVstroke-miterlimit
p3400
g20
sVstroke-dasharray
p3401
Vnone
p3402
sVstroke-width
p3403
V2.07500005
p3404
sVfill
p3405
V#0000ff
p3406
ssI170
(dp3407
Vopacity
p3408
g6
sVstroke-linejoin
p3409
Vmiter
p3410
sVstroke-opacity
p3411
g6
sVfill-rule
p3412
Vevenodd
p3413
sVfill-opacity
p3414
g6
sVstroke-dashoffset
p3415
g14
sVstroke
p3416
Vnone
p3417
sVstroke-linecap
p3418
Vround
p3419
sVstroke-miterlimit
p3420
g20
sVstroke-dasharray
p3421
Vnone
p3422
sVstroke-width
p3423
V2.07500005
p3424
sVfill
p3425
V#ff0000
p3426
ssI171
(dp3427
Vopacity
p3428
g6
sVstroke-linejoin
p3429
Vmiter
p3430
sVstroke-opacity
p3431
g6
sVfill-rule
p3432
Vevenodd
p3433
sVfill-opacity
p3434
g6
sVstroke-dashoffset
p3435
g14
sVstroke
p3436
Vnone
p3437
sVstroke-linecap
p3438
Vround
p3439
sVstroke-miterlimit
p3440
g20
sVstroke-dasharray
p3441
Vnone
p3442
sVstroke-width
p3443
V2.07500005
p3444
sVfill
p3445
V#0000ff
p3446
ssI172
(dp3447
Vopacity
p3448
g6
sVstroke-linejoin
p3449
Vmiter
p3450
sVstroke-opacity
p3451
g6
sVfill-rule
p3452
Vevenodd
p3453
sVfill-opacity
p3454
g6
sVstroke-dashoffset
p3455
g14
sVstroke
p3456
Vnone
p3457
sVstroke-linecap
p3458
Vround
p3459
sVstroke-miterlimit
p3460
g20
sVstroke-dasharray
p3461
Vnone
p3462
sVstroke-width
p3463
V2.07500005
p3464
sVfill
p3465
V#ff0000
p3466
ssI173
(dp3467
Vopacity
p3468
g6
sVstroke-linejoin
p3469
Vmiter
p3470
sVstroke-opacity
p3471
g6
sVfill-rule
p3472
Vevenodd
p3473
sVfill-opacity
p3474
g6
sVstroke-dashoffset
p3475
g14
sVstroke
p3476
Vnone
p3477
sVstroke-linecap
p3478
Vround
p3479
sVstroke-miterlimit
p3480
g20
sVstroke-dasharray
p3481
Vnone
p3482
sVstroke-width
p3483
V2.07500005
p3484
sVfill
p3485
V#0000ff
p3486
ssI174
(dp3487
Vopacity
p3488
g6
sVstroke-linejoin
p3489
Vmiter
p3490
sVstroke-opacity
p3491
g6
sVfill-rule
p3492
Vevenodd
p3493
sVfill-opacity
p3494
g6
sVstroke-dashoffset
p3495
g14
sVstroke
p3496
Vnone
p3497
sVstroke-linecap
p3498
Vround
p3499
sVstroke-miterlimit
p3500
g20
sVstroke-dasharray
p3501
Vnone
p3502
sVstroke-width
p3503
V2.07500005
p3504
sVfill
p3505
V#ff0000
p3506
ssI175
(dp3507
Vopacity
p3508
g6
sVstroke-linejoin
p3509
Vmiter
p3510
sVstroke-opacity
p3511
g6
sVfill-rule
p3512
Vevenodd
p3513
sVfill-opacity
p3514
g6
sVstroke-dashoffset
p3515
g14
sVstroke
p3516
Vnone
p3517
sVstroke-linecap
p3518
Vround
p3519
sVstroke-miterlimit
p3520
g20
sVstroke-dasharray
p3521
Vnone
p3522
sVstroke-width
p3523
V2.07500005
p3524
sVfill
p3525
V#0000ff
p3526
ssI176
(dp3527
Vopacity
p3528
g6
sVstroke-linejoin
p3529
Vmiter
p3530
sVstroke-opacity
p3531
g6
sVfill-rule
p3532
Vevenodd
p3533
sVfill-opacity
p3534
g6
sVstroke-dashoffset
p3535
g14
sVstroke
p3536
Vnone
p3537
sVstroke-linecap
p3538
Vround
p3539
sVstroke-miterlimit
p3540
g20
sVstroke-dasharray
p3541
Vnone
p3542
sVstroke-width
p3543
V2.07500005
p3544
sVfill
p3545
V#0000ff
p3546
ssI177
(dp3547
Vopacity
p3548
g6
sVstroke-linejoin
p3549
Vmiter
p3550
sVstroke-opacity
p3551
g6
sVfill-rule
p3552
Vevenodd
p3553
sVfill-opacity
p3554
g6
sVstroke-dashoffset
p3555
g14
sVstroke
p3556
Vnone
p3557
sVstroke-linecap
p3558
Vround
p3559
sVstroke-miterlimit
p3560
g20
sVstroke-dasharray
p3561
Vnone
p3562
sVstroke-width
p3563
V2.07500005
p3564
sVfill
p3565
V#ff0000
p3566
ssI178
(dp3567
Vopacity
p3568
g6
sVstroke-linejoin
p3569
Vmiter
p3570
sVstroke-opacity
p3571
g6
sVfill-rule
p3572
Vevenodd
p3573
sVfill-opacity
p3574
g6
sVstroke-dashoffset
p3575
g14
sVstroke
p3576
Vnone
p3577
sVstroke-linecap
p3578
Vround
p3579
sVstroke-miterlimit
p3580
g20
sVstroke-dasharray
p3581
Vnone
p3582
sVstroke-width
p3583
V2.07500005
p3584
sVfill
p3585
V#ff0000
p3586
ssI179
(dp3587
Vopacity
p3588
g6
sVstroke-linejoin
p3589
Vmiter
p3590
sVstroke-opacity
p3591
g6
sVfill-rule
p3592
Vevenodd
p3593
sVfill-opacity
p3594
g6
sVstroke-dashoffset
p3595
g14
sVstroke
p3596
Vnone
p3597
sVstroke-linecap
p3598
Vround
p3599
sVstroke-miterlimit
p3600
g20
sVstroke-dasharray
p3601
Vnone
p3602
sVstroke-width
p3603
V2.07500005
p3604
sVfill
p3605
V#ff0000
p3606
ssI180
(dp3607
Vopacity
p3608
g6
sVstroke-linejoin
p3609
Vmiter
p3610
sVstroke-opacity
p3611
g6
sVfill-rule
p3612
Vevenodd
p3613
sVfill-opacity
p3614
g6
sVstroke-dashoffset
p3615
g14
sVstroke
p3616
Vnone
p3617
sVstroke-linecap
p3618
Vround
p3619
sVstroke-miterlimit
p3620
g20
sVstroke-dasharray
p3621
Vnone
p3622
sVstroke-width
p3623
V2.07500005
p3624
sVfill
p3625
V#ff0000
p3626
ssI181
(dp3627
Vopacity
p3628
g6
sVstroke-linejoin
p3629
Vmiter
p3630
sVstroke-opacity
p3631
g6
sVfill-rule
p3632
Vevenodd
p3633
sVfill-opacity
p3634
g6
sVstroke-dashoffset
p3635
g14
sVstroke
p3636
Vnone
p3637
sVstroke-linecap
p3638
Vround
p3639
sVstroke-miterlimit
p3640
g20
sVstroke-dasharray
p3641
Vnone
p3642
sVstroke-width
p3643
V2.07500005
p3644
sVfill
p3645
V#ff0000
p3646
ssI182
(dp3647
Vopacity
p3648
g6
sVstroke-linejoin
p3649
Vmiter
p3650
sVstroke-opacity
p3651
g6
sVfill-rule
p3652
Vevenodd
p3653
sVfill-opacity
p3654
g6
sVstroke-dashoffset
p3655
g14
sVstroke
p3656
Vnone
p3657
sVstroke-linecap
p3658
Vround
p3659
sVstroke-miterlimit
p3660
g20
sVstroke-dasharray
p3661
Vnone
p3662
sVstroke-width
p3663
V2.07500005
p3664
sVfill
p3665
V#0000ff
p3666
ssI183
(dp3667
Vopacity
p3668
g6
sVstroke-linejoin
p3669
Vmiter
p3670
sVstroke-opacity
p3671
g6
sVfill-rule
p3672
Vevenodd
p3673
sVfill-opacity
p3674
g6
sVstroke-dashoffset
p3675
g14
sVstroke
p3676
Vnone
p3677
sVstroke-linecap
p3678
Vround
p3679
sVstroke-miterlimit
p3680
g20
sVstroke-dasharray
p3681
Vnone
p3682
sVstroke-width
p3683
V2.07500005
p3684
sVfill
p3685
V#0000ff
p3686
ssI184
(dp3687
Vopacity
p3688
g6
sVstroke-linejoin
p3689
Vmiter
p3690
sVstroke-opacity
p3691
g6
sVfill-rule
p3692
Vevenodd
p3693
sVfill-opacity
p3694
g6
sVstroke-dashoffset
p3695
g14
sVstroke
p3696
Vnone
p3697
sVstroke-linecap
p3698
Vround
p3699
sVstroke-miterlimit
p3700
g20
sVstroke-dasharray
p3701
Vnone
p3702
sVstroke-width
p3703
V2.07500005
p3704
sVfill
p3705
V#0000ff
p3706
ssI185
(dp3707
Vopacity
p3708
g6
sVstroke-linejoin
p3709
Vmiter
p3710
sVstroke-opacity
p3711
g6
sVfill-rule
p3712
Vevenodd
p3713
sVfill-opacity
p3714
g6
sVstroke-dashoffset
p3715
g14
sVstroke
p3716
Vnone
p3717
sVstroke-linecap
p3718
Vround
p3719
sVstroke-miterlimit
p3720
g20
sVstroke-dasharray
p3721
Vnone
p3722
sVstroke-width
p3723
V2.07500005
p3724
sVfill
p3725
V#ff0000
p3726
ssI186
(dp3727
Vopacity
p3728
g6
sVstroke-linejoin
p3729
Vmiter
p3730
sVstroke-opacity
p3731
g6
sVfill-rule
p3732
Vevenodd
p3733
sVfill-opacity
p3734
g6
sVstroke-dashoffset
p3735
g14
sVstroke
p3736
Vnone
p3737
sVstroke-linecap
p3738
Vround
p3739
sVstroke-miterlimit
p3740
g20
sVstroke-dasharray
p3741
Vnone
p3742
sVstroke-width
p3743
V2.07500005
p3744
sVfill
p3745
V#ff0000
p3746
ssI187
(dp3747
Vopacity
p3748
g6
sVstroke-linejoin
p3749
Vmiter
p3750
sVstroke-opacity
p3751
g6
sVfill-rule
p3752
Vevenodd
p3753
sVfill-opacity
p3754
g6
sVstroke-dashoffset
p3755
g14
sVstroke
p3756
Vnone
p3757
sVstroke-linecap
p3758
Vround
p3759
sVstroke-miterlimit
p3760
g20
sVstroke-dasharray
p3761
Vnone
p3762
sVstroke-width
p3763
V2.07500005
p3764
sVfill
p3765
V#ff0000
p3766
ssI188
(dp3767
Vopacity
p3768
g6
sVstroke-linejoin
p3769
Vmiter
p3770
sVstroke-opacity
p3771
g6
sVfill-rule
p3772
Vevenodd
p3773
sVfill-opacity
p3774
g6
sVstroke-dashoffset
p3775
g14
sVstroke
p3776
Vnone
p3777
sVstroke-linecap
p3778
Vround
p3779
sVstroke-miterlimit
p3780
g20
sVstroke-dasharray
p3781
Vnone
p3782
sVstroke-width
p3783
V2.07500005
p3784
sVfill
p3785
V#0000ff
p3786
ssI189
(dp3787
Vopacity
p3788
g6
sVstroke-linejoin
p3789
Vmiter
p3790
sVstroke-opacity
p3791
g6
sVfill-rule
p3792
Vevenodd
p3793
sVfill-opacity
p3794
g6
sVstroke-dashoffset
p3795
g14
sVstroke
p3796
Vnone
p3797
sVstroke-linecap
p3798
Vround
p3799
sVstroke-miterlimit
p3800
g20
sVstroke-dasharray
p3801
Vnone
p3802
sVstroke-width
p3803
V2.07500005
p3804
sVfill
p3805
V#0000ff
p3806
ssI190
(dp3807
Vopacity
p3808
g6
sVstroke-linejoin
p3809
Vmiter
p3810
sVstroke-opacity
p3811
g6
sVfill-rule
p3812
Vevenodd
p3813
sVfill-opacity
p3814
g6
sVstroke-dashoffset
p3815
g14
sVstroke
p3816
Vnone
p3817
sVstroke-linecap
p3818
Vround
p3819
sVstroke-miterlimit
p3820
g20
sVstroke-dasharray
p3821
Vnone
p3822
sVstroke-width
p3823
V2.07500005
p3824
sVfill
p3825
V#ff0000
p3826
ssI191
(dp3827
Vopacity
p3828
g6
sVstroke-linejoin
p3829
Vmiter
p3830
sVstroke-opacity
p3831
g6
sVfill-rule
p3832
Vevenodd
p3833
sVfill-opacity
p3834
g6
sVstroke-dashoffset
p3835
g14
sVstroke
p3836
Vnone
p3837
sVstroke-linecap
p3838
Vround
p3839
sVstroke-miterlimit
p3840
g20
sVstroke-dasharray
p3841
Vnone
p3842
sVstroke-width
p3843
V2.07500005
p3844
sVfill
p3845
V#ff0000
p3846
ssI192
(dp3847
Vopacity
p3848
g6
sVstroke-linejoin
p3849
Vmiter
p3850
sVstroke-opacity
p3851
g6
sVfill-rule
p3852
Vevenodd
p3853
sVfill-opacity
p3854
g6
sVstroke-dashoffset
p3855
g14
sVstroke
p3856
Vnone
p3857
sVstroke-linecap
p3858
Vround
p3859
sVstroke-miterlimit
p3860
g20
sVstroke-dasharray
p3861
Vnone
p3862
sVstroke-width
p3863
V2.07500005
p3864
sVfill
p3865
V#ff0000
p3866
ssI193
(dp3867
Vopacity
p3868
g6
sVstroke-linejoin
p3869
Vmiter
p3870
sVstroke-opacity
p3871
g6
sVfill-rule
p3872
Vevenodd
p3873
sVfill-opacity
p3874
g6
sVstroke-dashoffset
p3875
g14
sVstroke
p3876
Vnone
p3877
sVstroke-linecap
p3878
Vround
p3879
sVstroke-miterlimit
p3880
g20
sVstroke-dasharray
p3881
Vnone
p3882
sVstroke-width
p3883
V2.07500005
p3884
sVfill
p3885
V#ff0000
p3886
ssI194
(dp3887
Vopacity
p3888
g6
sVstroke-linejoin
p3889
Vmiter
p3890
sVstroke-opacity
p3891
g6
sVfill-rule
p3892
Vevenodd
p3893
sVfill-opacity
p3894
g6
sVstroke-dashoffset
p3895
g14
sVstroke
p3896
Vnone
p3897
sVstroke-linecap
p3898
Vround
p3899
sVstroke-miterlimit
p3900
g20
sVstroke-dasharray
p3901
Vnone
p3902
sVstroke-width
p3903
V2.07500005
p3904
sVfill
p3905
V#ff0000
p3906
ssI195
(dp3907
Vopacity
p3908
g6
sVstroke-linejoin
p3909
Vmiter
p3910
sVstroke-opacity
p3911
g6
sVfill-rule
p3912
Vevenodd
p3913
sVfill-opacity
p3914
g6
sVstroke-dashoffset
p3915
g14
sVstroke
p3916
Vnone
p3917
sVstroke-linecap
p3918
Vround
p3919
sVstroke-miterlimit
p3920
g20
sVstroke-dasharray
p3921
Vnone
p3922
sVstroke-width
p3923
V2.07500005
p3924
sVfill
p3925
V#0000ff
p3926
ssI196
(dp3927
Vopacity
p3928
g6
sVstroke-linejoin
p3929
Vmiter
p3930
sVstroke-opacity
p3931
g6
sVfill-rule
p3932
Vevenodd
p3933
sVfill-opacity
p3934
g6
sVstroke-dashoffset
p3935
g14
sVstroke
p3936
Vnone
p3937
sVstroke-linecap
p3938
Vround
p3939
sVstroke-miterlimit
p3940
g20
sVstroke-dasharray
p3941
Vnone
p3942
sVstroke-width
p3943
V2.07500005
p3944
sVfill
p3945
V#0000ff
p3946
ssI197
(dp3947
Vopacity
p3948
g6
sVstroke-linejoin
p3949
Vmiter
p3950
sVstroke-opacity
p3951
g6
sVfill-rule
p3952
Vevenodd
p3953
sVfill-opacity
p3954
g6
sVstroke-dashoffset
p3955
g14
sVstroke
p3956
Vnone
p3957
sVstroke-linecap
p3958
Vround
p3959
sVstroke-miterlimit
p3960
g20
sVstroke-dasharray
p3961
Vnone
p3962
sVstroke-width
p3963
V2.07500005
p3964
sVfill
p3965
V#0000ff
p3966
ssI198
(dp3967
Vopacity
p3968
g6
sVstroke-linejoin
p3969
Vmiter
p3970
sVstroke-opacity
p3971
g6
sVfill-rule
p3972
Vevenodd
p3973
sVfill-opacity
p3974
g6
sVstroke-dashoffset
p3975
g14
sVstroke
p3976
Vnone
p3977
sVstroke-linecap
p3978
Vround
p3979
sVstroke-miterlimit
p3980
g20
sVstroke-dasharray
p3981
Vnone
p3982
sVstroke-width
p3983
V2.07500005
p3984
sVfill
p3985
V#0000ff
p3986
ssI199
(dp3987
Vopacity
p3988
g6
sVstroke-linejoin
p3989
Vmiter
p3990
sVstroke-opacity
p3991
g6
sVfill-rule
p3992
Vevenodd
p3993
sVfill-opacity
p3994
g6
sVstroke-dashoffset
p3995
g14
sVstroke
p3996
Vnone
p3997
sVstroke-linecap
p3998
Vround
p3999
sVstroke-miterlimit
p4000
g20
sVstroke-dasharray
p4001
Vnone
p4002
sVstroke-width
p4003
V2.07500005
p4004
sVfill
p4005
V#0000ff
p4006
ssI200
(dp4007
Vopacity
p4008
g6
sVstroke-linejoin
p4009
Vmiter
p4010
sVstroke-opacity
p4011
g6
sVfill-rule
p4012
Vevenodd
p4013
sVfill-opacity
p4014
g6
sVstroke-dashoffset
p4015
g14
sVstroke
p4016
Vnone
p4017
sVstroke-linecap
p4018
Vround
p4019
sVstroke-miterlimit
p4020
g20
sVstroke-dasharray
p4021
Vnone
p4022
sVstroke-width
p4023
V2.07500005
p4024
sVfill
p4025
V#ff0000
p4026
ssI201
(dp4027
Vopacity
p4028
g6
sVstroke-linejoin
p4029
Vmiter
p4030
sVstroke-opacity
p4031
g6
sVfill-rule
p4032
Vevenodd
p4033
sVfill-opacity
p4034
g6
sVstroke-dashoffset
p4035
g14
sVstroke
p4036
Vnone
p4037
sVstroke-linecap
p4038
Vround
p4039
sVstroke-miterlimit
p4040
g20
sVstroke-dasharray
p4041
Vnone
p4042
sVstroke-width
p4043
V2.07500005
p4044
sVfill
p4045
V#ff0000
p4046
ssI202
(dp4047
Vopacity
p4048
g6
sVstroke-linejoin
p4049
Vmiter
p4050
sVstroke-opacity
p4051
g6
sVfill-rule
p4052
Vevenodd
p4053
sVfill-opacity
p4054
g6
sVstroke-dashoffset
p4055
g14
sVstroke
p4056
Vnone
p4057
sVstroke-linecap
p4058
Vround
p4059
sVstroke-miterlimit
p4060
g20
sVstroke-dasharray
p4061
Vnone
p4062
sVstroke-width
p4063
V2.07500005
p4064
sVfill
p4065
V#ff0000
p4066
ssI203
(dp4067
Vopacity
p4068
g6
sVstroke-linejoin
p4069
Vmiter
p4070
sVstroke-opacity
p4071
g6
sVfill-rule
p4072
Vevenodd
p4073
sVfill-opacity
p4074
g6
sVstroke-dashoffset
p4075
g14
sVstroke
p4076
Vnone
p4077
sVstroke-linecap
p4078
Vround
p4079
sVstroke-miterlimit
p4080
g20
sVstroke-dasharray
p4081
Vnone
p4082
sVstroke-width
p4083
V2.07500005
p4084
sVfill
p4085
V#ff0000
p4086
ssI204
(dp4087
Vopacity
p4088
g6
sVstroke-linejoin
p4089
Vmiter
p4090
sVstroke-opacity
p4091
g6
sVfill-rule
p4092
Vevenodd
p4093
sVfill-opacity
p4094
g6
sVstroke-dashoffset
p4095
g14
sVstroke
p4096
Vnone
p4097
sVstroke-linecap
p4098
Vround
p4099
sVstroke-miterlimit
p4100
g20
sVstroke-dasharray
p4101
Vnone
p4102
sVstroke-width
p4103
V2.07500005
p4104
sVfill
p4105
V#ff0000
p4106
ssI205
(dp4107
Vopacity
p4108
g6
sVstroke-linejoin
p4109
Vmiter
p4110
sVstroke-opacity
p4111
g6
sVfill-rule
p4112
Vevenodd
p4113
sVfill-opacity
p4114
g6
sVstroke-dashoffset
p4115
g14
sVstroke
p4116
Vnone
p4117
sVstroke-linecap
p4118
Vround
p4119
sVstroke-miterlimit
p4120
g20
sVstroke-dasharray
p4121
Vnone
p4122
sVstroke-width
p4123
V2.07500005
p4124
sVfill
p4125
V#0000ff
p4126
ssI206
(dp4127
Vopacity
p4128
g6
sVstroke-linejoin
p4129
Vmiter
p4130
sVstroke-opacity
p4131
g6
sVfill-rule
p4132
Vevenodd
p4133
sVfill-opacity
p4134
g6
sVstroke-dashoffset
p4135
g14
sVstroke
p4136
Vnone
p4137
sVstroke-linecap
p4138
Vround
p4139
sVstroke-miterlimit
p4140
g20
sVstroke-dasharray
p4141
Vnone
p4142
sVstroke-width
p4143
V2.07500005
p4144
sVfill
p4145
V#0000ff
p4146
ssI207
(dp4147
Vopacity
p4148
g6
sVstroke-linejoin
p4149
Vmiter
p4150
sVstroke-opacity
p4151
g6
sVfill-rule
p4152
Vevenodd
p4153
sVfill-opacity
p4154
g6
sVstroke-dashoffset
p4155
g14
sVstroke
p4156
Vnone
p4157
sVstroke-linecap
p4158
Vround
p4159
sVstroke-miterlimit
p4160
g20
sVstroke-dasharray
p4161
Vnone
p4162
sVstroke-width
p4163
V2.07500005
p4164
sVfill
p4165
V#0000ff
p4166
ssI208
(dp4167
Vopacity
p4168
g6
sVstroke-linejoin
p4169
Vmiter
p4170
sVstroke-opacity
p4171
g6
sVfill-rule
p4172
Vevenodd
p4173
sVfill-opacity
p4174
g6
sVstroke-dashoffset
p4175
g14
sVstroke
p4176
Vnone
p4177
sVstroke-linecap
p4178
Vround
p4179
sVstroke-miterlimit
p4180
g20
sVstroke-dasharray
p4181
Vnone
p4182
sVstroke-width
p4183
V2.07500005
p4184
sVfill
p4185
V#0000ff
p4186
ssI209
(dp4187
Vopacity
p4188
g6
sVstroke-linejoin
p4189
Vmiter
p4190
sVstroke-opacity
p4191
g6
sVfill-rule
p4192
Vevenodd
p4193
sVfill-opacity
p4194
g6
sVstroke-dashoffset
p4195
g14
sVstroke
p4196
Vnone
p4197
sVstroke-linecap
p4198
Vround
p4199
sVstroke-miterlimit
p4200
g20
sVstroke-dasharray
p4201
Vnone
p4202
sVstroke-width
p4203
V2.07500005
p4204
sVfill
p4205
V#ff0000
p4206
ssI210
(dp4207
Vopacity
p4208
g6
sVstroke-linejoin
p4209
Vmiter
p4210
sVstroke-opacity
p4211
g6
sVfill-rule
p4212
Vevenodd
p4213
sVfill-opacity
p4214
g6
sVstroke-dashoffset
p4215
g14
sVstroke
p4216
Vnone
p4217
sVstroke-linecap
p4218
Vround
p4219
sVstroke-miterlimit
p4220
g20
sVstroke-dasharray
p4221
Vnone
p4222
sVstroke-width
p4223
V2.07500005
p4224
sVfill
p4225
V#ff0000
p4226
ssI211
(dp4227
Vopacity
p4228
g6
sVstroke-linejoin
p4229
Vmiter
p4230
sVstroke-opacity
p4231
g6
sVfill-rule
p4232
Vevenodd
p4233
sVfill-opacity
p4234
g6
sVstroke-dashoffset
p4235
g14
sVstroke
p4236
Vnone
p4237
sVstroke-linecap
p4238
Vround
p4239
sVstroke-miterlimit
p4240
g20
sVstroke-dasharray
p4241
Vnone
p4242
sVstroke-width
p4243
V2.07500005
p4244
sVfill
p4245
V#0000ff
p4246
ssI212
(dp4247
Vopacity
p4248
g6
sVstroke-linejoin
p4249
Vmiter
p4250
sVstroke-opacity
p4251
g6
sVfill-rule
p4252
Vevenodd
p4253
sVfill-opacity
p4254
g6
sVstroke-dashoffset
p4255
g14
sVstroke
p4256
Vnone
p4257
sVstroke-linecap
p4258
Vround
p4259
sVstroke-miterlimit
p4260
g20
sVstroke-dasharray
p4261
Vnone
p4262
sVstroke-width
p4263
V2.07500005
p4264
sVfill
p4265
V#0000ff
p4266
ssI213
(dp4267
Vopacity
p4268
g6
sVstroke-linejoin
p4269
Vmiter
p4270
sVstroke-opacity
p4271
g6
sVfill-rule
p4272
Vevenodd
p4273
sVfill-opacity
p4274
g6
sVstroke-dashoffset
p4275
g14
sVstroke
p4276
Vnone
p4277
sVstroke-linecap
p4278
Vround
p4279
sVstroke-miterlimit
p4280
g20
sVstroke-dasharray
p4281
Vnone
p4282
sVstroke-width
p4283
V2.07500005
p4284
sVfill
p4285
V#0000ff
p4286
ssI214
(dp4287
Vopacity
p4288
g6
sVstroke-linejoin
p4289
Vmiter
p4290
sVstroke-opacity
p4291
g6
sVfill-rule
p4292
Vevenodd
p4293
sVfill-opacity
p4294
g6
sVstroke-dashoffset
p4295
g14
sVstroke
p4296
Vnone
p4297
sVstroke-linecap
p4298
Vround
p4299
sVstroke-miterlimit
p4300
g20
sVstroke-dasharray
p4301
Vnone
p4302
sVstroke-width
p4303
V2.07500005
p4304
sVfill
p4305
V#ff0000
p4306
ssI215
(dp4307
Vopacity
p4308
g6
sVstroke-linejoin
p4309
Vmiter
p4310
sVstroke-opacity
p4311
g6
sVfill-rule
p4312
Vevenodd
p4313
sVfill-opacity
p4314
g6
sVstroke-dashoffset
p4315
g14
sVstroke
p4316
Vnone
p4317
sVstroke-linecap
p4318
Vround
p4319
sVstroke-miterlimit
p4320
g20
sVstroke-dasharray
p4321
Vnone
p4322
sVstroke-width
p4323
V2.07500005
p4324
sVfill
p4325
V#0000ff
p4326
ssI216
(dp4327
Vopacity
p4328
g6
sVstroke-linejoin
p4329
Vmiter
p4330
sVstroke-opacity
p4331
g6
sVfill-rule
p4332
Vevenodd
p4333
sVfill-opacity
p4334
g6
sVstroke-dashoffset
p4335
g14
sVstroke
p4336
Vnone
p4337
sVstroke-linecap
p4338
Vround
p4339
sVstroke-miterlimit
p4340
g20
sVstroke-dasharray
p4341
Vnone
p4342
sVstroke-width
p4343
V2.07500005
p4344
sVfill
p4345
V#ff0000
p4346
ssI217
(dp4347
Vopacity
p4348
g6
sVstroke-linejoin
p4349
Vmiter
p4350
sVstroke-opacity
p4351
g6
sVfill-rule
p4352
Vevenodd
p4353
sVfill-opacity
p4354
g6
sVstroke-dashoffset
p4355
g14
sVstroke
p4356
Vnone
p4357
sVstroke-linecap
p4358
Vround
p4359
sVstroke-miterlimit
p4360
g20
sVstroke-dasharray
p4361
Vnone
p4362
sVstroke-width
p4363
V2.07500005
p4364
sVfill
p4365
V#0000ff
p4366
ssI218
(dp4367
Vopacity
p4368
g6
sVstroke-linejoin
p4369
Vmiter
p4370
sVstroke-opacity
p4371
g6
sVfill-rule
p4372
Vevenodd
p4373
sVfill-opacity
p4374
g6
sVstroke-dashoffset
p4375
g14
sVstroke
p4376
Vnone
p4377
sVstroke-linecap
p4378
Vround
p4379
sVstroke-miterlimit
p4380
g20
sVstroke-dasharray
p4381
Vnone
p4382
sVstroke-width
p4383
V2.07500005
p4384
sVfill
p4385
V#0000ff
p4386
ssI219
(dp4387
Vopacity
p4388
g6
sVstroke-linejoin
p4389
Vmiter
p4390
sVstroke-opacity
p4391
g6
sVfill-rule
p4392
Vevenodd
p4393
sVfill-opacity
p4394
g6
sVstroke-dashoffset
p4395
g14
sVstroke
p4396
Vnone
p4397
sVstroke-linecap
p4398
Vround
p4399
sVstroke-miterlimit
p4400
g20
sVstroke-dasharray
p4401
Vnone
p4402
sVstroke-width
p4403
V2.07500005
p4404
sVfill
p4405
V#ff0000
p4406
ssI220
(dp4407
Vopacity
p4408
g6
sVstroke-linejoin
p4409
Vmiter
p4410
sVstroke-opacity
p4411
g6
sVfill-rule
p4412
Vevenodd
p4413
sVfill-opacity
p4414
g6
sVstroke-dashoffset
p4415
g14
sVstroke
p4416
Vnone
p4417
sVstroke-linecap
p4418
Vround
p4419
sVstroke-miterlimit
p4420
g20
sVstroke-dasharray
p4421
Vnone
p4422
sVstroke-width
p4423
V2.07500005
p4424
sVfill
p4425
V#ff0000
p4426
ssI221
(dp4427
Vopacity
p4428
g6
sVstroke-linejoin
p4429
Vmiter
p4430
sVstroke-opacity
p4431
g6
sVfill-rule
p4432
Vevenodd
p4433
sVfill-opacity
p4434
g6
sVstroke-dashoffset
p4435
g14
sVstroke
p4436
Vnone
p4437
sVstroke-linecap
p4438
Vround
p4439
sVstroke-miterlimit
p4440
g20
sVstroke-dasharray
p4441
Vnone
p4442
sVstroke-width
p4443
V2.07500005
p4444
sVfill
p4445
V#ff0000
p4446
ssI222
(dp4447
Vopacity
p4448
g6
sVstroke-linejoin
p4449
Vmiter
p4450
sVstroke-opacity
p4451
g6
sVfill-rule
p4452
Vevenodd
p4453
sVfill-opacity
p4454
g6
sVstroke-dashoffset
p4455
g14
sVstroke
p4456
Vnone
p4457
sVstroke-linecap
p4458
Vround
p4459
sVstroke-miterlimit
p4460
g20
sVstroke-dasharray
p4461
Vnone
p4462
sVstroke-width
p4463
V2.07500005
p4464
sVfill
p4465
V#0000ff
p4466
ssI223
(dp4467
Vopacity
p4468
g6
sVstroke-linejoin
p4469
Vmiter
p4470
sVstroke-opacity
p4471
g6
sVfill-rule
p4472
Vevenodd
p4473
sVfill-opacity
p4474
g6
sVstroke-dashoffset
p4475
g14
sVstroke
p4476
Vnone
p4477
sVstroke-linecap
p4478
Vround
p4479
sVstroke-miterlimit
p4480
g20
sVstroke-dasharray
p4481
Vnone
p4482
sVstroke-width
p4483
V2.07500005
p4484
sVfill
p4485
V#0000ff
p4486
ssI224
(dp4487
Vopacity
p4488
g6
sVstroke-linejoin
p4489
Vmiter
p4490
sVstroke-opacity
p4491
g6
sVfill-rule
p4492
Vevenodd
p4493
sVfill-opacity
p4494
g6
sVstroke-dashoffset
p4495
g14
sVstroke
p4496
Vnone
p4497
sVstroke-linecap
p4498
Vround
p4499
sVstroke-miterlimit
p4500
g20
sVstroke-dasharray
p4501
Vnone
p4502
sVstroke-width
p4503
V2.07500005
p4504
sVfill
p4505
V#ff0000
p4506
ssI225
(dp4507
Vopacity
p4508
g6
sVstroke-linejoin
p4509
Vmiter
p4510
sVstroke-opacity
p4511
g6
sVfill-rule
p4512
Vevenodd
p4513
sVfill-opacity
p4514
g6
sVstroke-dashoffset
p4515
g14
sVstroke
p4516
Vnone
p4517
sVstroke-linecap
p4518
Vround
p4519
sVstroke-miterlimit
p4520
g20
sVstroke-dasharray
p4521
Vnone
p4522
sVstroke-width
p4523
V2.07500005
p4524
sVfill
p4525
V#0000ff
p4526
ssI226
(dp4527
Vopacity
p4528
g6
sVstroke-linejoin
p4529
Vmiter
p4530
sVstroke-opacity
p4531
g6
sVfill-rule
p4532
Vevenodd
p4533
sVfill-opacity
p4534
g6
sVstroke-dashoffset
p4535
g14
sVstroke
p4536
Vnone
p4537
sVstroke-linecap
p4538
Vround
p4539
sVstroke-miterlimit
p4540
g20
sVstroke-dasharray
p4541
Vnone
p4542
sVstroke-width
p4543
V2.07500005
p4544
sVfill
p4545
V#ff0000
p4546
ssI227
(dp4547
Vopacity
p4548
g6
sVstroke-linejoin
p4549
Vmiter
p4550
sVstroke-opacity
p4551
g6
sVfill-rule
p4552
Vevenodd
p4553
sVfill-opacity
p4554
g6
sVstroke-dashoffset
p4555
g14
sVstroke
p4556
Vnone
p4557
sVstroke-linecap
p4558
Vround
p4559
sVstroke-miterlimit
p4560
g20
sVstroke-dasharray
p4561
Vnone
p4562
sVstroke-width
p4563
V2.07500005
p4564
sVfill
p4565
V#0000ff
p4566
ssI228
(dp4567
Vopacity
p4568
g6
sVstroke-linejoin
p4569
Vmiter
p4570
sVstroke-opacity
p4571
g6
sVfill-rule
p4572
Vevenodd
p4573
sVfill-opacity
p4574
g6
sVstroke-dashoffset
p4575
g14
sVstroke
p4576
Vnone
p4577
sVstroke-linecap
p4578
Vround
p4579
sVstroke-miterlimit
p4580
g20
sVstroke-dasharray
p4581
Vnone
p4582
sVstroke-width
p4583
V2.07500005
p4584
sVfill
p4585
V#ff0000
p4586
ssI229
(dp4587
Vopacity
p4588
g6
sVstroke-linejoin
p4589
Vmiter
p4590
sVstroke-opacity
p4591
g6
sVfill-rule
p4592
Vevenodd
p4593
sVfill-opacity
p4594
g6
sVstroke-dashoffset
p4595
g14
sVstroke
p4596
Vnone
p4597
sVstroke-linecap
p4598
Vround
p4599
sVstroke-miterlimit
p4600
g20
sVstroke-dasharray
p4601
Vnone
p4602
sVstroke-width
p4603
V2.07500005
p4604
sVfill
p4605
V#0000ff
p4606
ssI230
(dp4607
Vopacity
p4608
g6
sVstroke-linejoin
p4609
Vmiter
p4610
sVstroke-opacity
p4611
g6
sVfill-rule
p4612
Vevenodd
p4613
sVfill-opacity
p4614
g6
sVstroke-dashoffset
p4615
g14
sVstroke
p4616
Vnone
p4617
sVstroke-linecap
p4618
Vround
p4619
sVstroke-miterlimit
p4620
g20
sVstroke-dasharray
p4621
Vnone
p4622
sVstroke-width
p4623
V2.07500005
p4624
sVfill
p4625
V#ff0000
p4626
ssI231
(dp4627
Vopacity
p4628
g6
sVstroke-linejoin
p4629
Vmiter
p4630
sVstroke-opacity
p4631
g6
sVfill-rule
p4632
Vevenodd
p4633
sVfill-opacity
p4634
g6
sVstroke-dashoffset
p4635
g14
sVstroke
p4636
Vnone
p4637
sVstroke-linecap
p4638
Vround
p4639
sVstroke-miterlimit
p4640
g20
sVstroke-dasharray
p4641
Vnone
p4642
sVstroke-width
p4643
V2.07500005
p4644
sVfill
p4645
V#0000ff
p4646
ssI232
(dp4647
Vopacity
p4648
g6
sVstroke-linejoin
p4649
Vmiter
p4650
sVstroke-opacity
p4651
g6
sVfill-rule
p4652
Vevenodd
p4653
sVfill-opacity
p4654
g6
sVstroke-dashoffset
p4655
g14
sVstroke
p4656
Vnone
p4657
sVstroke-linecap
p4658
Vround
p4659
sVstroke-miterlimit
p4660
g20
sVstroke-dasharray
p4661
Vnone
p4662
sVstroke-width
p4663
V2.07500005
p4664
sVfill
p4665
V#ff0000
p4666
ssI233
(dp4667
Vopacity
p4668
g6
sVstroke-linejoin
p4669
Vmiter
p4670
sVstroke-opacity
p4671
g6
sVfill-rule
p4672
Vevenodd
p4673
sVfill-opacity
p4674
g6
sVstroke-dashoffset
p4675
g14
sVstroke
p4676
Vnone
p4677
sVstroke-linecap
p4678
Vround
p4679
sVstroke-miterlimit
p4680
g20
sVstroke-dasharray
p4681
Vnone
p4682
sVstroke-width
p4683
V2.07500005
p4684
sVfill
p4685
V#0000ff
p4686
ssI234
(dp4687
Vopacity
p4688
g6
sVstroke-linejoin
p4689
Vmiter
p4690
sVstroke-opacity
p4691
g6
sVfill-rule
p4692
Vevenodd
p4693
sVfill-opacity
p4694
g6
sVstroke-dashoffset
p4695
g14
sVstroke
p4696
Vnone
p4697
sVstroke-linecap
p4698
Vround
p4699
sVstroke-miterlimit
p4700
g20
sVstroke-dasharray
p4701
Vnone
p4702
sVstroke-width
p4703
V2.07500005
p4704
sVfill
p4705
V#0000ff
p4706
ssI235
(dp4707
Vopacity
p4708
g6
sVstroke-linejoin
p4709
Vmiter
p4710
sVstroke-opacity
p4711
g6
sVfill-rule
p4712
Vevenodd
p4713
sVfill-opacity
p4714
g6
sVstroke-dashoffset
p4715
g14
sVstroke
p4716
Vnone
p4717
sVstroke-linecap
p4718
Vround
p4719
sVstroke-miterlimit
p4720
g20
sVstroke-dasharray
p4721
Vnone
p4722
sVstroke-width
p4723
V2.07500005
p4724
sVfill
p4725
V#490000
p4726
ssI236
(dp4727
Vopacity
p4728
g6
sVstroke-linejoin
p4729
Vmiter
p4730
sVstroke-opacity
p4731
g6
sVfill-rule
p4732
Vevenodd
p4733
sVfill-opacity
p4734
g6
sVstroke-dashoffset
p4735
g14
sVstroke
p4736
Vnone
p4737
sVstroke-linecap
p4738
Vround
p4739
sVstroke-miterlimit
p4740
g20
sVstroke-dasharray
p4741
Vnone
p4742
sVstroke-width
p4743
V2.07500005
p4744
sVfill
p4745
V#490000
p4746
ssI237
(dp4747
Vopacity
p4748
g6
sVstroke-linejoin
p4749
Vmiter
p4750
sVstroke-opacity
p4751
g6
sVfill-rule
p4752
Vevenodd
p4753
sVfill-opacity
p4754
g6
sVstroke-dashoffset
p4755
g14
sVstroke
p4756
Vnone
p4757
sVstroke-linecap
p4758
Vround
p4759
sVstroke-miterlimit
p4760
g20
sVstroke-dasharray
p4761
Vnone
p4762
sVstroke-width
p4763
V2.07500005
p4764
sVfill
p4765
V#490000
p4766
ssI238
(dp4767
Vopacity
p4768
g6
sVstroke-linejoin
p4769
Vmiter
p4770
sVstroke-opacity
p4771
g6
sVfill-rule
p4772
Vevenodd
p4773
sVfill-opacity
p4774
g6
sVstroke-dashoffset
p4775
g14
sVstroke
p4776
Vnone
p4777
sVstroke-linecap
p4778
Vround
p4779
sVstroke-miterlimit
p4780
g20
sVstroke-dasharray
p4781
Vnone
p4782
sVstroke-width
p4783
V2.07500005
p4784
sVfill
p4785
V#490000
p4786
ssI239
(dp4787
Vopacity
p4788
g6
sVstroke-linejoin
p4789
Vmiter
p4790
sVstroke-opacity
p4791
g6
sVfill-rule
p4792
Vevenodd
p4793
sVfill-opacity
p4794
g6
sVstroke-dashoffset
p4795
g14
sVstroke
p4796
Vnone
p4797
sVstroke-linecap
p4798
Vround
p4799
sVstroke-miterlimit
p4800
g20
sVstroke-dasharray
p4801
Vnone
p4802
sVstroke-width
p4803
V2.07500005
p4804
sVfill
p4805
V#9c009a
p4806
ssI240
(dp4807
Vopacity
p4808
g6
sVstroke-linejoin
p4809
Vmiter
p4810
sVstroke-opacity
p4811
g6
sVfill-rule
p4812
Vevenodd
p4813
sVfill-opacity
p4814
g6
sVstroke-dashoffset
p4815
g14
sVstroke
p4816
Vnone
p4817
sVstroke-linecap
p4818
Vround
p4819
sVstroke-miterlimit
p4820
g20
sVstroke-dasharray
p4821
Vnone
p4822
sVstroke-width
p4823
V2.07500005
p4824
sVfill
p4825
V#9c009a
p4826
ssI241
(dp4827
Vopacity
p4828
g6
sVstroke-linejoin
p4829
Vmiter
p4830
sVstroke-opacity
p4831
g6
sVfill-rule
p4832
Vevenodd
p4833
sVfill-opacity
p4834
g6
sVstroke-dashoffset
p4835
g14
sVstroke
p4836
Vnone
p4837
sVstroke-linecap
p4838
Vround
p4839
sVstroke-miterlimit
p4840
g20
sVstroke-dasharray
p4841
Vnone
p4842
sVstroke-width
p4843
V2.07500005
p4844
sVfill
p4845
V#9c009a
p4846
ssI242
(dp4847
Vopacity
p4848
g6
sVstroke-linejoin
p4849
Vmiter
p4850
sVstroke-opacity
p4851
g6
sVfill-rule
p4852
Vevenodd
p4853
sVfill-opacity
p4854
g6
sVstroke-dashoffset
p4855
g14
sVstroke
p4856
Vnone
p4857
sVstroke-linecap
p4858
Vround
p4859
sVstroke-miterlimit
p4860
g20
sVstroke-dasharray
p4861
Vnone
p4862
sVstroke-width
p4863
V2.07500005
p4864
sVfill
p4865
V#9c009a
p4866
ssI243
(dp4867
Vopacity
p4868
g6
sVstroke-linejoin
p4869
Vmiter
p4870
sVstroke-opacity
p4871
g6
sVfill-rule
p4872
Vevenodd
p4873
sVfill-opacity
p4874
g6
sVstroke-dashoffset
p4875
g14
sVstroke
p4876
Vnone
p4877
sVstroke-linecap
p4878
Vround
p4879
sVstroke-miterlimit
p4880
g20
sVstroke-dasharray
p4881
Vnone
p4882
sVstroke-width
p4883
V2.07500005
p4884
sVfill
p4885
V#9c009a
p4886
ssI244
(dp4887
Vopacity
p4888
g6
sVstroke-linejoin
p4889
Vmiter
p4890
sVstroke-opacity
p4891
g6
sVfill-rule
p4892
Vevenodd
p4893
sVfill-opacity
p4894
g6
sVstroke-dashoffset
p4895
g14
sVstroke
p4896
Vnone
p4897
sVstroke-linecap
p4898
Vround
p4899
sVstroke-miterlimit
p4900
g20
sVstroke-dasharray
p4901
Vnone
p4902
sVstroke-width
p4903
V2.07500005
p4904
sVfill
p4905
V#490000
p4906
ssI245
(dp4907
Vopacity
p4908
g6
sVstroke-linejoin
p4909
Vmiter
p4910
sVstroke-opacity
p4911
g6
sVfill-rule
p4912
Vevenodd
p4913
sVfill-opacity
p4914
g6
sVstroke-dashoffset
p4915
g14
sVstroke
p4916
Vnone
p4917
sVstroke-linecap
p4918
Vround
p4919
sVstroke-miterlimit
p4920
g20
sVstroke-dasharray
p4921
Vnone
p4922
sVstroke-width
p4923
V2.07500005
p4924
sVfill
p4925
V#9c009a
p4926
ssI246
(dp4927
Vopacity
p4928
g6
sVstroke-linejoin
p4929
Vmiter
p4930
sVstroke-opacity
p4931
g6
sVfill-rule
p4932
Vevenodd
p4933
sVfill-opacity
p4934
g6
sVstroke-dashoffset
p4935
g14
sVstroke
p4936
Vnone
p4937
sVstroke-linecap
p4938
Vround
p4939
sVstroke-miterlimit
p4940
g20
sVstroke-dasharray
p4941
Vnone
p4942
sVstroke-width
p4943
V2.07500005
p4944
sVfill
p4945
V#9c009a
p4946
ssI247
(dp4947
Vopacity
p4948
g6
sVstroke-linejoin
p4949
Vmiter
p4950
sVstroke-opacity
p4951
g6
sVfill-rule
p4952
Vevenodd
p4953
sVfill-opacity
p4954
g6
sVstroke-dashoffset
p4955
g14
sVstroke
p4956
Vnone
p4957
sVstroke-linecap
p4958
Vround
p4959
sVstroke-miterlimit
p4960
g20
sVstroke-dasharray
p4961
Vnone
p4962
sVstroke-width
p4963
V2.07500005
p4964
sVfill
p4965
V#490000
p4966
ssI248
(dp4967
Vopacity
p4968
g6
sVstroke-linejoin
p4969
Vmiter
p4970
sVstroke-opacity
p4971
g6
sVfill-rule
p4972
Vevenodd
p4973
sVfill-opacity
p4974
g6
sVstroke-dashoffset
p4975
g14
sVstroke
p4976
Vnone
p4977
sVstroke-linecap
p4978
Vround
p4979
sVstroke-miterlimit
p4980
g20
sVstroke-dasharray
p4981
Vnone
p4982
sVstroke-width
p4983
V2.07500005
p4984
sVfill
p4985
V#490000
p4986
ssI249
(dp4987
Vopacity
p4988
g6
sVstroke-linejoin
p4989
Vmiter
p4990
sVstroke-opacity
p4991
g6
sVfill-rule
p4992
Vevenodd
p4993
sVfill-opacity
p4994
g6
sVstroke-dashoffset
p4995
g14
sVstroke
p4996
Vnone
p4997
sVstroke-linecap
p4998
Vround
p4999
sVstroke-miterlimit
p5000
g20
sVstroke-dasharray
p5001
Vnone
p5002
sVstroke-width
p5003
V2.07500005
p5004
sVfill
p5005
V#9c009a
p5006
ssI250
(dp5007
Vopacity
p5008
g6
sVstroke-linejoin
p5009
Vmiter
p5010
sVstroke-opacity
p5011
g6
sVfill-rule
p5012
Vevenodd
p5013
sVfill-opacity
p5014
g6
sVstroke-dashoffset
p5015
g14
sVstroke
p5016
Vnone
p5017
sVstroke-linecap
p5018
Vround
p5019
sVstroke-miterlimit
p5020
g20
sVstroke-dasharray
p5021
Vnone
p5022
sVstroke-width
p5023
V2.07500005
p5024
sVfill
p5025
V#9c009a
p5026
ssI251
(dp5027
Vopacity
p5028
g6
sVstroke-linejoin
p5029
Vmiter
p5030
sVstroke-opacity
p5031
g6
sVfill-rule
p5032
Vevenodd
p5033
sVfill-opacity
p5034
g6
sVstroke-dashoffset
p5035
g14
sVstroke
p5036
Vnone
p5037
sVstroke-linecap
p5038
Vround
p5039
sVstroke-miterlimit
p5040
g20
sVstroke-dasharray
p5041
Vnone
p5042
sVstroke-width
p5043
V2.07500005
p5044
sVfill
p5045
V#490000
p5046
ssI252
(dp5047
Vopacity
p5048
g6
sVstroke-linejoin
p5049
Vmiter
p5050
sVstroke-opacity
p5051
g6
sVfill-rule
p5052
Vevenodd
p5053
sVfill-opacity
p5054
g6
sVstroke-dashoffset
p5055
g14
sVstroke
p5056
Vnone
p5057
sVstroke-linecap
p5058
Vround
p5059
sVstroke-miterlimit
p5060
g20
sVstroke-dasharray
p5061
Vnone
p5062
sVstroke-width
p5063
V2.07500005
p5064
sVfill
p5065
V#9c009a
p5066
ssI253
(dp5067
Vopacity
p5068
g6
sVstroke-linejoin
p5069
Vmiter
p5070
sVstroke-opacity
p5071
g6
sVfill-rule
p5072
Vevenodd
p5073
sVfill-opacity
p5074
g6
sVstroke-dashoffset
p5075
g14
sVstroke
p5076
Vnone
p5077
sVstroke-linecap
p5078
Vround
p5079
sVstroke-miterlimit
p5080
g20
sVstroke-dasharray
p5081
Vnone
p5082
sVstroke-width
p5083
V2.07500005
p5084
sVfill
p5085
V#490000
p5086
ssI254
(dp5087
Vopacity
p5088
g6
sVstroke-linejoin
p5089
Vmiter
p5090
sVstroke-opacity
p5091
g6
sVfill-rule
p5092
Vevenodd
p5093
sVfill-opacity
p5094
g6
sVstroke-dashoffset
p5095
g14
sVstroke
p5096
Vnone
p5097
sVstroke-linecap
p5098
Vround
p5099
sVstroke-miterlimit
p5100
g20
sVstroke-dasharray
p5101
Vnone
p5102
sVstroke-width
p5103
V2.07500005
p5104
sVfill
p5105
V#9c009a
p5106
ssI255
(dp5107
Vopacity
p5108
g6
sVstroke-linejoin
p5109
Vmiter
p5110
sVstroke-opacity
p5111
g6
sVfill-rule
p5112
Vevenodd
p5113
sVfill-opacity
p5114
g6
sVstroke-dashoffset
p5115
g14
sVstroke
p5116
Vnone
p5117
sVstroke-linecap
p5118
Vround
p5119
sVstroke-miterlimit
p5120
g20
sVstroke-dasharray
p5121
Vnone
p5122
sVstroke-width
p5123
V2.07500005
p5124
sVfill
p5125
V#9c009a
p5126
ssI256
(dp5127
Vopacity
p5128
g6
sVstroke-linejoin
p5129
Vmiter
p5130
sVstroke-opacity
p5131
g6
sVfill-rule
p5132
Vevenodd
p5133
sVfill-opacity
p5134
g6
sVstroke-dashoffset
p5135
g14
sVstroke
p5136
Vnone
p5137
sVstroke-linecap
p5138
Vround
p5139
sVstroke-miterlimit
p5140
g20
sVstroke-dasharray
p5141
Vnone
p5142
sVstroke-width
p5143
V2.07500005
p5144
sVfill
p5145
V#490000
p5146
ssI257
(dp5147
Vopacity
p5148
g6
sVstroke-linejoin
p5149
Vmiter
p5150
sVstroke-opacity
p5151
g6
sVfill-rule
p5152
Vevenodd
p5153
sVfill-opacity
p5154
g6
sVstroke-dashoffset
p5155
g14
sVstroke
p5156
Vnone
p5157
sVstroke-linecap
p5158
Vround
p5159
sVstroke-miterlimit
p5160
g20
sVstroke-dasharray
p5161
Vnone
p5162
sVstroke-width
p5163
V2.07500005
p5164
sVfill
p5165
V#490000
p5166
ssI258
(dp5167
Vopacity
p5168
g6
sVstroke-linejoin
p5169
Vmiter
p5170
sVstroke-opacity
p5171
g6
sVfill-rule
p5172
Vevenodd
p5173
sVfill-opacity
p5174
g6
sVstroke-dashoffset
p5175
g14
sVstroke
p5176
Vnone
p5177
sVstroke-linecap
p5178
Vround
p5179
sVstroke-miterlimit
p5180
g20
sVstroke-dasharray
p5181
Vnone
p5182
sVstroke-width
p5183
V2.07500005
p5184
sVfill
p5185
V#9c009a
p5186
ssI259
(dp5187
Vopacity
p5188
g6
sVstroke-linejoin
p5189
Vmiter
p5190
sVstroke-opacity
p5191
g6
sVfill-rule
p5192
Vevenodd
p5193
sVfill-opacity
p5194
g6
sVstroke-dashoffset
p5195
g14
sVstroke
p5196
Vnone
p5197
sVstroke-linecap
p5198
Vround
p5199
sVstroke-miterlimit
p5200
g20
sVstroke-dasharray
p5201
Vnone
p5202
sVstroke-width
p5203
V2.07500005
p5204
sVfill
p5205
V#9c009a
p5206
ssI260
(dp5207
Vopacity
p5208
g6
sVstroke-linejoin
p5209
Vmiter
p5210
sVstroke-opacity
p5211
g6
sVfill-rule
p5212
Vevenodd
p5213
sVfill-opacity
p5214
g6
sVstroke-dashoffset
p5215
g14
sVstroke
p5216
Vnone
p5217
sVstroke-linecap
p5218
Vround
p5219
sVstroke-miterlimit
p5220
g20
sVstroke-dasharray
p5221
Vnone
p5222
sVstroke-width
p5223
V2.07500005
p5224
sVfill
p5225
V#9c009a
p5226
ssI261
(dp5227
Vopacity
p5228
g6
sVstroke-linejoin
p5229
Vmiter
p5230
sVstroke-opacity
p5231
g6
sVfill-rule
p5232
Vevenodd
p5233
sVfill-opacity
p5234
g6
sVstroke-dashoffset
p5235
g14
sVstroke
p5236
Vnone
p5237
sVstroke-linecap
p5238
Vround
p5239
sVstroke-miterlimit
p5240
g20
sVstroke-dasharray
p5241
Vnone
p5242
sVstroke-width
p5243
V2.07500005
p5244
sVfill
p5245
V#490000
p5246
ssI262
(dp5247
Vopacity
p5248
g6
sVstroke-linejoin
p5249
Vmiter
p5250
sVstroke-opacity
p5251
g6
sVfill-rule
p5252
Vevenodd
p5253
sVfill-opacity
p5254
g6
sVstroke-dashoffset
p5255
g14
sVstroke
p5256
Vnone
p5257
sVstroke-linecap
p5258
Vround
p5259
sVstroke-miterlimit
p5260
g20
sVstroke-dasharray
p5261
Vnone
p5262
sVstroke-width
p5263
V2.07500005
p5264
sVfill
p5265
V#9c009a
p5266
ssI263
(dp5267
Vopacity
p5268
g6
sVstroke-linejoin
p5269
Vmiter
p5270
sVstroke-opacity
p5271
g6
sVfill-rule
p5272
Vevenodd
p5273
sVfill-opacity
p5274
g6
sVstroke-dashoffset
p5275
g14
sVstroke
p5276
Vnone
p5277
sVstroke-linecap
p5278
Vround
p5279
sVstroke-miterlimit
p5280
g20
sVstroke-dasharray
p5281
Vnone
p5282
sVstroke-width
p5283
V2.07500005
p5284
sVfill
p5285
V#9c009a
p5286
ssI264
(dp5287
Vopacity
p5288
g6
sVstroke-linejoin
p5289
Vmiter
p5290
sVstroke-opacity
p5291
g6
sVfill-rule
p5292
Vevenodd
p5293
sVfill-opacity
p5294
g6
sVstroke-dashoffset
p5295
g14
sVstroke
p5296
Vnone
p5297
sVstroke-linecap
p5298
Vround
p5299
sVstroke-miterlimit
p5300
g20
sVstroke-dasharray
p5301
Vnone
p5302
sVstroke-width
p5303
V2.07500005
p5304
sVfill
p5305
V#9c009a
p5306
ssI265
(dp5307
Vopacity
p5308
g6
sVstroke-linejoin
p5309
Vmiter
p5310
sVstroke-opacity
p5311
g6
sVfill-rule
p5312
Vevenodd
p5313
sVfill-opacity
p5314
g6
sVstroke-dashoffset
p5315
g14
sVstroke
p5316
Vnone
p5317
sVstroke-linecap
p5318
Vround
p5319
sVstroke-miterlimit
p5320
g20
sVstroke-dasharray
p5321
Vnone
p5322
sVstroke-width
p5323
V2.07500005
p5324
sVfill
p5325
V#490000
p5326
ssI266
(dp5327
Vopacity
p5328
g6
sVstroke-linejoin
p5329
Vmiter
p5330
sVstroke-opacity
p5331
g6
sVfill-rule
p5332
Vevenodd
p5333
sVfill-opacity
p5334
g6
sVstroke-dashoffset
p5335
g14
sVstroke
p5336
Vnone
p5337
sVstroke-linecap
p5338
Vround
p5339
sVstroke-miterlimit
p5340
g20
sVstroke-dasharray
p5341
Vnone
p5342
sVstroke-width
p5343
V2.07500005
p5344
sVfill
p5345
V#9c009a
p5346
ssI267
(dp5347
Vopacity
p5348
g6
sVstroke-linejoin
p5349
Vmiter
p5350
sVstroke-opacity
p5351
g6
sVfill-rule
p5352
Vevenodd
p5353
sVfill-opacity
p5354
g6
sVstroke-dashoffset
p5355
g14
sVstroke
p5356
Vnone
p5357
sVstroke-linecap
p5358
Vround
p5359
sVstroke-miterlimit
p5360
g20
sVstroke-dasharray
p5361
Vnone
p5362
sVstroke-width
p5363
V2.07500005
p5364
sVfill
p5365
V#490000
p5366
ssI268
(dp5367
Vopacity
p5368
g6
sVstroke-linejoin
p5369
Vmiter
p5370
sVstroke-opacity
p5371
g6
sVfill-rule
p5372
Vevenodd
p5373
sVfill-opacity
p5374
g6
sVstroke-dashoffset
p5375
g14
sVstroke
p5376
Vnone
p5377
sVstroke-linecap
p5378
Vround
p5379
sVstroke-miterlimit
p5380
g20
sVstroke-dasharray
p5381
Vnone
p5382
sVstroke-width
p5383
V2.07500005
p5384
sVfill
p5385
V#9c009a
p5386
ssI269
(dp5387
Vopacity
p5388
g6
sVstroke-linejoin
p5389
Vmiter
p5390
sVstroke-opacity
p5391
g6
sVfill-rule
p5392
Vevenodd
p5393
sVfill-opacity
p5394
g6
sVstroke-dashoffset
p5395
g14
sVstroke
p5396
Vnone
p5397
sVstroke-linecap
p5398
Vround
p5399
sVstroke-miterlimit
p5400
g20
sVstroke-dasharray
p5401
Vnone
p5402
sVstroke-width
p5403
V2.07500005
p5404
sVfill
p5405
V#9c009a
p5406
ssI270
(dp5407
Vopacity
p5408
g6
sVstroke-linejoin
p5409
Vmiter
p5410
sVstroke-opacity
p5411
g6
sVfill-rule
p5412
Vevenodd
p5413
sVfill-opacity
p5414
g6
sVstroke-dashoffset
p5415
g14
sVstroke
p5416
Vnone
p5417
sVstroke-linecap
p5418
Vround
p5419
sVstroke-miterlimit
p5420
g20
sVstroke-dasharray
p5421
Vnone
p5422
sVstroke-width
p5423
V2.07500005
p5424
sVfill
p5425
V#490000
p5426
ssI271
(dp5427
Vopacity
p5428
g6
sVstroke-linejoin
p5429
Vmiter
p5430
sVstroke-opacity
p5431
g6
sVfill-rule
p5432
Vevenodd
p5433
sVfill-opacity
p5434
g6
sVstroke-dashoffset
p5435
g14
sVstroke
p5436
Vnone
p5437
sVstroke-linecap
p5438
Vround
p5439
sVstroke-miterlimit
p5440
g20
sVstroke-dasharray
p5441
Vnone
p5442
sVstroke-width
p5443
V2.07500005
p5444
sVfill
p5445
V#9c009a
p5446
ssI272
(dp5447
Vopacity
p5448
g6
sVstroke-linejoin
p5449
Vmiter
p5450
sVstroke-opacity
p5451
g6
sVfill-rule
p5452
Vevenodd
p5453
sVfill-opacity
p5454
g6
sVstroke-dashoffset
p5455
g14
sVstroke
p5456
Vnone
p5457
sVstroke-linecap
p5458
Vround
p5459
sVstroke-miterlimit
p5460
g20
sVstroke-dasharray
p5461
Vnone
p5462
sVstroke-width
p5463
V2.07500005
p5464
sVfill
p5465
V#9c009a
p5466
ssI273
(dp5467
Vopacity
p5468
g6
sVstroke-linejoin
p5469
Vmiter
p5470
sVstroke-opacity
p5471
g6
sVfill-rule
p5472
Vevenodd
p5473
sVfill-opacity
p5474
g6
sVstroke-dashoffset
p5475
g14
sVstroke
p5476
Vnone
p5477
sVstroke-linecap
p5478
Vround
p5479
sVstroke-miterlimit
p5480
g20
sVstroke-dasharray
p5481
Vnone
p5482
sVstroke-width
p5483
V2.07500005
p5484
sVfill
p5485
V#490000
p5486
ssI274
(dp5487
Vopacity
p5488
g6
sVstroke-linejoin
p5489
Vmiter
p5490
sVstroke-opacity
p5491
g6
sVfill-rule
p5492
Vevenodd
p5493
sVfill-opacity
p5494
g6
sVstroke-dashoffset
p5495
g14
sVstroke
p5496
Vnone
p5497
sVstroke-linecap
p5498
Vround
p5499
sVstroke-miterlimit
p5500
g20
sVstroke-dasharray
p5501
Vnone
p5502
sVstroke-width
p5503
V2.07500005
p5504
sVfill
p5505
V#490000
p5506
ssI275
(dp5507
Vopacity
p5508
g6
sVstroke-linejoin
p5509
Vmiter
p5510
sVstroke-opacity
p5511
g6
sVfill-rule
p5512
Vevenodd
p5513
sVfill-opacity
p5514
g6
sVstroke-dashoffset
p5515
g14
sVstroke
p5516
Vnone
p5517
sVstroke-linecap
p5518
Vround
p5519
sVstroke-miterlimit
p5520
g20
sVstroke-dasharray
p5521
Vnone
p5522
sVstroke-width
p5523
V2.07500005
p5524
sVfill
p5525
V#9c009a
p5526
ssI276
(dp5527
Vopacity
p5528
g6
sVstroke-linejoin
p5529
Vmiter
p5530
sVstroke-opacity
p5531
g6
sVfill-rule
p5532
Vevenodd
p5533
sVfill-opacity
p5534
g6
sVstroke-dashoffset
p5535
g14
sVstroke
p5536
Vnone
p5537
sVstroke-linecap
p5538
Vround
p5539
sVstroke-miterlimit
p5540
g20
sVstroke-dasharray
p5541
Vnone
p5542
sVstroke-width
p5543
V2.07500005
p5544
sVfill
p5545
V#9c009a
p5546
ssI277
(dp5547
Vopacity
p5548
g6
sVstroke-linejoin
p5549
Vmiter
p5550
sVstroke-opacity
p5551
g6
sVfill-rule
p5552
Vevenodd
p5553
sVfill-opacity
p5554
g6
sVstroke-dashoffset
p5555
g14
sVstroke
p5556
Vnone
p5557
sVstroke-linecap
p5558
Vround
p5559
sVstroke-miterlimit
p5560
g20
sVstroke-dasharray
p5561
Vnone
p5562
sVstroke-width
p5563
V2.07500005
p5564
sVfill
p5565
V#490000
p5566
ssI278
(dp5567
Vopacity
p5568
g6
sVstroke-linejoin
p5569
Vmiter
p5570
sVstroke-opacity
p5571
g6
sVfill-rule
p5572
Vevenodd
p5573
sVfill-opacity
p5574
g6
sVstroke-dashoffset
p5575
g14
sVstroke
p5576
Vnone
p5577
sVstroke-linecap
p5578
Vround
p5579
sVstroke-miterlimit
p5580
g20
sVstroke-dasharray
p5581
Vnone
p5582
sVstroke-width
p5583
V2.07500005
p5584
sVfill
p5585
V#9c009a
p5586
ssI279
(dp5587
Vopacity
p5588
g6
sVstroke-linejoin
p5589
Vmiter
p5590
sVstroke-opacity
p5591
g6
sVfill-rule
p5592
Vevenodd
p5593
sVfill-opacity
p5594
g6
sVstroke-dashoffset
p5595
g14
sVstroke
p5596
Vnone
p5597
sVstroke-linecap
p5598
Vround
p5599
sVstroke-miterlimit
p5600
g20
sVstroke-dasharray
p5601
Vnone
p5602
sVstroke-width
p5603
V2.07500005
p5604
sVfill
p5605
V#9c009a
p5606
ssI280
(dp5607
Vopacity
p5608
g6
sVstroke-linejoin
p5609
Vmiter
p5610
sVstroke-opacity
p5611
g6
sVfill-rule
p5612
Vevenodd
p5613
sVfill-opacity
p5614
g6
sVstroke-dashoffset
p5615
g14
sVstroke
p5616
Vnone
p5617
sVstroke-linecap
p5618
Vround
p5619
sVstroke-miterlimit
p5620
g20
sVstroke-dasharray
p5621
Vnone
p5622
sVstroke-width
p5623
V2.07500005
p5624
sVfill
p5625
V#490000
p5626
ssI281
(dp5627
Vopacity
p5628
g6
sVstroke-linejoin
p5629
Vmiter
p5630
sVstroke-opacity
p5631
g6
sVfill-rule
p5632
Vevenodd
p5633
sVfill-opacity
p5634
g6
sVstroke-dashoffset
p5635
g14
sVstroke
p5636
Vnone
p5637
sVstroke-linecap
p5638
Vround
p5639
sVstroke-miterlimit
p5640
g20
sVstroke-dasharray
p5641
Vnone
p5642
sVstroke-width
p5643
V2.07500005
p5644
sVfill
p5645
V#490000
p5646
ssI282
(dp5647
Vopacity
p5648
g6
sVstroke-linejoin
p5649
Vmiter
p5650
sVstroke-opacity
p5651
g6
sVfill-rule
p5652
Vevenodd
p5653
sVfill-opacity
p5654
g6
sVstroke-dashoffset
p5655
g14
sVstroke
p5656
Vnone
p5657
sVstroke-linecap
p5658
Vround
p5659
sVstroke-miterlimit
p5660
g20
sVstroke-dasharray
p5661
Vnone
p5662
sVstroke-width
p5663
V2.07500005
p5664
sVfill
p5665
V#490000
p5666
ssI283
(dp5667
Vopacity
p5668
g6
sVstroke-linejoin
p5669
Vmiter
p5670
sVstroke-opacity
p5671
g6
sVfill-rule
p5672
Vevenodd
p5673
sVfill-opacity
p5674
g6
sVstroke-dashoffset
p5675
g14
sVstroke
p5676
Vnone
p5677
sVstroke-linecap
p5678
Vround
p5679
sVstroke-miterlimit
p5680
g20
sVstroke-dasharray
p5681
Vnone
p5682
sVstroke-width
p5683
V2.07500005
p5684
sVfill
p5685
V#9c009a
p5686
ssI284
(dp5687
Vopacity
p5688
g6
sVstroke-linejoin
p5689
Vmiter
p5690
sVstroke-opacity
p5691
g6
sVfill-rule
p5692
Vevenodd
p5693
sVfill-opacity
p5694
g6
sVstroke-dashoffset
p5695
g14
sVstroke
p5696
Vnone
p5697
sVstroke-linecap
p5698
Vround
p5699
sVstroke-miterlimit
p5700
g20
sVstroke-dasharray
p5701
Vnone
p5702
sVstroke-width
p5703
V2.07500005
p5704
sVfill
p5705
V#9c009a
p5706
ssI285
(dp5707
Vopacity
p5708
g6
sVstroke-linejoin
p5709
Vmiter
p5710
sVstroke-opacity
p5711
g6
sVfill-rule
p5712
Vevenodd
p5713
sVfill-opacity
p5714
g6
sVstroke-dashoffset
p5715
g14
sVstroke
p5716
Vnone
p5717
sVstroke-linecap
p5718
Vround
p5719
sVstroke-miterlimit
p5720
g20
sVstroke-dasharray
p5721
Vnone
p5722
sVstroke-width
p5723
V2.07500005
p5724
sVfill
p5725
V#490000
p5726
ssI286
(dp5727
Vopacity
p5728
g6
sVstroke-linejoin
p5729
Vmiter
p5730
sVstroke-opacity
p5731
g6
sVfill-rule
p5732
Vevenodd
p5733
sVfill-opacity
p5734
g6
sVstroke-dashoffset
p5735
g14
sVstroke
p5736
Vnone
p5737
sVstroke-linecap
p5738
Vround
p5739
sVstroke-miterlimit
p5740
g20
sVstroke-dasharray
p5741
Vnone
p5742
sVstroke-width
p5743
V2.07500005
p5744
sVfill
p5745
V#9c009a
p5746
ssI287
(dp5747
Vopacity
p5748
g6
sVstroke-linejoin
p5749
Vmiter
p5750
sVstroke-opacity
p5751
g6
sVfill-rule
p5752
Vevenodd
p5753
sVfill-opacity
p5754
g6
sVstroke-dashoffset
p5755
g14
sVstroke
p5756
Vnone
p5757
sVstroke-linecap
p5758
Vround
p5759
sVstroke-miterlimit
p5760
g20
sVstroke-dasharray
p5761
Vnone
p5762
sVstroke-width
p5763
V2.07500005
p5764
sVfill
p5765
V#9c009a
p5766
ssI288
(dp5767
Vopacity
p5768
g6
sVstroke-linejoin
p5769
Vmiter
p5770
sVstroke-opacity
p5771
g6
sVfill-rule
p5772
Vevenodd
p5773
sVfill-opacity
p5774
g6
sVstroke-dashoffset
p5775
g14
sVstroke
p5776
Vnone
p5777
sVstroke-linecap
p5778
Vround
p5779
sVstroke-miterlimit
p5780
g20
sVstroke-dasharray
p5781
Vnone
p5782
sVstroke-width
p5783
V2.07500005
p5784
sVfill
p5785
V#490000
p5786
ssI289
(dp5787
Vopacity
p5788
g6
sVstroke-linejoin
p5789
Vmiter
p5790
sVstroke-opacity
p5791
g6
sVfill-rule
p5792
Vevenodd
p5793
sVfill-opacity
p5794
g6
sVstroke-dashoffset
p5795
g14
sVstroke
p5796
Vnone
p5797
sVstroke-linecap
p5798
Vround
p5799
sVstroke-miterlimit
p5800
g20
sVstroke-dasharray
p5801
Vnone
p5802
sVstroke-width
p5803
V2.07500005
p5804
sVfill
p5805
V#9c009a
p5806
ssI290
(dp5807
Vopacity
p5808
g6
sVstroke-linejoin
p5809
Vmiter
p5810
sVstroke-opacity
p5811
g6
sVfill-rule
p5812
Vevenodd
p5813
sVfill-opacity
p5814
g6
sVstroke-dashoffset
p5815
g14
sVstroke
p5816
Vnone
p5817
sVstroke-linecap
p5818
Vround
p5819
sVstroke-miterlimit
p5820
g20
sVstroke-dasharray
p5821
Vnone
p5822
sVstroke-width
p5823
V2.07500005
p5824
sVfill
p5825
V#9c009a
p5826
ssI291
(dp5827
Vopacity
p5828
g6
sVstroke-linejoin
p5829
Vmiter
p5830
sVstroke-opacity
p5831
g6
sVfill-rule
p5832
Vevenodd
p5833
sVfill-opacity
p5834
g6
sVstroke-dashoffset
p5835
g14
sVstroke
p5836
Vnone
p5837
sVstroke-linecap
p5838
Vround
p5839
sVstroke-miterlimit
p5840
g20
sVstroke-dasharray
p5841
Vnone
p5842
sVstroke-width
p5843
V2.07500005
p5844
sVfill
p5845
V#9c009a
p5846
ssI292
(dp5847
Vopacity
p5848
g6
sVstroke-linejoin
p5849
Vmiter
p5850
sVstroke-opacity
p5851
g6
sVfill-rule
p5852
Vevenodd
p5853
sVfill-opacity
p5854
g6
sVstroke-dashoffset
p5855
g14
sVstroke
p5856
Vnone
p5857
sVstroke-linecap
p5858
Vround
p5859
sVstroke-miterlimit
p5860
g20
sVstroke-dasharray
p5861
Vnone
p5862
sVstroke-width
p5863
V2.07500005
p5864
sVfill
p5865
V#9c009a
p5866
ssI293
(dp5867
Vopacity
p5868
g6
sVstroke-linejoin
p5869
Vmiter
p5870
sVstroke-opacity
p5871
g6
sVfill-rule
p5872
Vevenodd
p5873
sVfill-opacity
p5874
g6
sVstroke-dashoffset
p5875
g14
sVstroke
p5876
Vnone
p5877
sVstroke-linecap
p5878
Vround
p5879
sVstroke-miterlimit
p5880
g20
sVstroke-dasharray
p5881
Vnone
p5882
sVstroke-width
p5883
V2.07500005
p5884
sVfill
p5885
V#490000
p5886
ssI294
(dp5887
Vopacity
p5888
g6
sVstroke-linejoin
p5889
Vmiter
p5890
sVstroke-opacity
p5891
g6
sVfill-rule
p5892
Vevenodd
p5893
sVfill-opacity
p5894
g6
sVstroke-dashoffset
p5895
g14
sVstroke
p5896
Vnone
p5897
sVstroke-linecap
p5898
Vround
p5899
sVstroke-miterlimit
p5900
g20
sVstroke-dasharray
p5901
Vnone
p5902
sVstroke-width
p5903
V2.07500005
p5904
sVfill
p5905
V#490000
p5906
ssI295
(dp5907
Vopacity
p5908
g6
sVstroke-linejoin
p5909
Vmiter
p5910
sVstroke-opacity
p5911
g6
sVfill-rule
p5912
Vevenodd
p5913
sVfill-opacity
p5914
g6
sVstroke-dashoffset
p5915
g14
sVstroke
p5916
Vnone
p5917
sVstroke-linecap
p5918
Vround
p5919
sVstroke-miterlimit
p5920
g20
sVstroke-dasharray
p5921
Vnone
p5922
sVstroke-width
p5923
V2.07500005
p5924
sVfill
p5925
V#490000
p5926
ssI296
(dp5927
Vopacity
p5928
g6
sVstroke-linejoin
p5929
Vmiter
p5930
sVstroke-opacity
p5931
g6
sVfill-rule
p5932
Vevenodd
p5933
sVfill-opacity
p5934
g6
sVstroke-dashoffset
p5935
g14
sVstroke
p5936
Vnone
p5937
sVstroke-linecap
p5938
Vround
p5939
sVstroke-miterlimit
p5940
g20
sVstroke-dasharray
p5941
Vnone
p5942
sVstroke-width
p5943
V2.07500005
p5944
sVfill
p5945
V#490000
p5946
ssI297
(dp5947
Vopacity
p5948
g6
sVstroke-linejoin
p5949
Vmiter
p5950
sVstroke-opacity
p5951
g6
sVfill-rule
p5952
Vevenodd
p5953
sVfill-opacity
p5954
g6
sVstroke-dashoffset
p5955
g14
sVstroke
p5956
Vnone
p5957
sVstroke-linecap
p5958
Vround
p5959
sVstroke-miterlimit
p5960
g20
sVstroke-dasharray
p5961
Vnone
p5962
sVstroke-width
p5963
V2.07500005
p5964
sVfill
p5965
V#9c009a
p5966
ssI298
(dp5967
Vopacity
p5968
g6
sVstroke-linejoin
p5969
Vmiter
p5970
sVstroke-opacity
p5971
g6
sVfill-rule
p5972
Vevenodd
p5973
sVfill-opacity
p5974
g6
sVstroke-dashoffset
p5975
g14
sVstroke
p5976
Vnone
p5977
sVstroke-linecap
p5978
Vround
p5979
sVstroke-miterlimit
p5980
g20
sVstroke-dasharray
p5981
Vnone
p5982
sVstroke-width
p5983
V2.07500005
p5984
sVfill
p5985
V#9c009a
p5986
ssI299
(dp5987
Vopacity
p5988
g6
sVstroke-linejoin
p5989
Vmiter
p5990
sVstroke-opacity
p5991
g6
sVfill-rule
p5992
Vevenodd
p5993
sVfill-opacity
p5994
g6
sVstroke-dashoffset
p5995
g14
sVstroke
p5996
Vnone
p5997
sVstroke-linecap
p5998
Vround
p5999
sVstroke-miterlimit
p6000
g20
sVstroke-dasharray
p6001
Vnone
p6002
sVstroke-width
p6003
V2.07500005
p6004
sVfill
p6005
V#9c009a
p6006
ssI300
(dp6007
Vopacity
p6008
g6
sVstroke-linejoin
p6009
Vmiter
p6010
sVstroke-opacity
p6011
g6
sVfill-rule
p6012
Vevenodd
p6013
sVfill-opacity
p6014
g6
sVstroke-dashoffset
p6015
g14
sVstroke
p6016
Vnone
p6017
sVstroke-linecap
p6018
Vround
p6019
sVstroke-miterlimit
p6020
g20
sVstroke-dasharray
p6021
Vnone
p6022
sVstroke-width
p6023
V2.07500005
p6024
sVfill
p6025
V#9c009a
p6026
ssI301
(dp6027
Vopacity
p6028
g6
sVstroke-linejoin
p6029
Vmiter
p6030
sVstroke-opacity
p6031
g6
sVfill-rule
p6032
Vevenodd
p6033
sVfill-opacity
p6034
g6
sVstroke-dashoffset
p6035
g14
sVstroke
p6036
Vnone
p6037
sVstroke-linecap
p6038
Vround
p6039
sVstroke-miterlimit
p6040
g20
sVstroke-dasharray
p6041
Vnone
p6042
sVstroke-width
p6043
V2.07500005
p6044
sVfill
p6045
V#9c009a
p6046
ssI302
(dp6047
Vopacity
p6048
g6
sVstroke-linejoin
p6049
Vmiter
p6050
sVstroke-opacity
p6051
g6
sVfill-rule
p6052
Vevenodd
p6053
sVfill-opacity
p6054
g6
sVstroke-dashoffset
p6055
g14
sVstroke
p6056
Vnone
p6057
sVstroke-linecap
p6058
Vround
p6059
sVstroke-miterlimit
p6060
g20
sVstroke-dasharray
p6061
Vnone
p6062
sVstroke-width
p6063
V2.07500005
p6064
sVfill
p6065
V#9c009a
p6066
ssI303
(dp6067
Vopacity
p6068
g6
sVstroke-linejoin
p6069
Vmiter
p6070
sVstroke-opacity
p6071
g6
sVfill-rule
p6072
Vevenodd
p6073
sVfill-opacity
p6074
g6
sVstroke-dashoffset
p6075
g14
sVstroke
p6076
Vnone
p6077
sVstroke-linecap
p6078
Vround
p6079
sVstroke-miterlimit
p6080
g20
sVstroke-dasharray
p6081
Vnone
p6082
sVstroke-width
p6083
V2.07500005
p6084
sVfill
p6085
V#9c009a
p6086
ssI304
(dp6087
Vopacity
p6088
g6
sVstroke-linejoin
p6089
Vmiter
p6090
sVstroke-opacity
p6091
g6
sVfill-rule
p6092
Vevenodd
p6093
sVfill-opacity
p6094
g6
sVstroke-dashoffset
p6095
g14
sVstroke
p6096
Vnone
p6097
sVstroke-linecap
p6098
Vround
p6099
sVstroke-miterlimit
p6100
g20
sVstroke-dasharray
p6101
Vnone
p6102
sVstroke-width
p6103
V2.07500005
p6104
sVfill
p6105
V#9c009a
p6106
ssI305
(dp6107
Vopacity
p6108
g6
sVstroke-linejoin
p6109
Vmiter
p6110
sVstroke-opacity
p6111
g6
sVfill-rule
p6112
Vevenodd
p6113
sVfill-opacity
p6114
g6
sVstroke-dashoffset
p6115
g14
sVstroke
p6116
Vnone
p6117
sVstroke-linecap
p6118
Vround
p6119
sVstroke-miterlimit
p6120
g20
sVstroke-dasharray
p6121
Vnone
p6122
sVstroke-width
p6123
V2.07500005
p6124
sVfill
p6125
V#9c009a
p6126
ssI306
(dp6127
Vopacity
p6128
g6
sVstroke-linejoin
p6129
Vmiter
p6130
sVstroke-opacity
p6131
g6
sVfill-rule
p6132
Vevenodd
p6133
sVfill-opacity
p6134
g6
sVstroke-dashoffset
p6135
g14
sVstroke
p6136
Vnone
p6137
sVstroke-linecap
p6138
Vround
p6139
sVstroke-miterlimit
p6140
g20
sVstroke-dasharray
p6141
Vnone
p6142
sVstroke-width
p6143
V2.07500005
p6144
sVfill
p6145
V#9c009a
p6146
ssI307
(dp6147
Vopacity
p6148
g6
sVstroke-linejoin
p6149
Vmiter
p6150
sVstroke-opacity
p6151
g6
sVfill-rule
p6152
Vevenodd
p6153
sVfill-opacity
p6154
g6
sVstroke-dashoffset
p6155
g14
sVstroke
p6156
Vnone
p6157
sVstroke-linecap
p6158
Vround
p6159
sVstroke-miterlimit
p6160
g20
sVstroke-dasharray
p6161
Vnone
p6162
sVstroke-width
p6163
V2.07500005
p6164
sVfill
p6165
V#490000
p6166
ssI308
(dp6167
Vopacity
p6168
g6
sVstroke-linejoin
p6169
Vmiter
p6170
sVstroke-opacity
p6171
g6
sVfill-rule
p6172
Vevenodd
p6173
sVfill-opacity
p6174
g6
sVstroke-dashoffset
p6175
g14
sVstroke
p6176
Vnone
p6177
sVstroke-linecap
p6178
Vround
p6179
sVstroke-miterlimit
p6180
g20
sVstroke-dasharray
p6181
Vnone
p6182
sVstroke-width
p6183
V2.07500005
p6184
sVfill
p6185
V#490000
p6186
ssI309
(dp6187
Vopacity
p6188
g6
sVstroke-linejoin
p6189
Vmiter
p6190
sVstroke-opacity
p6191
g6
sVfill-rule
p6192
Vevenodd
p6193
sVfill-opacity
p6194
g6
sVstroke-dashoffset
p6195
g14
sVstroke
p6196
Vnone
p6197
sVstroke-linecap
p6198
Vround
p6199
sVstroke-miterlimit
p6200
g20
sVstroke-dasharray
p6201
Vnone
p6202
sVstroke-width
p6203
V2.07500005
p6204
sVfill
p6205
V#9c009a
p6206
ssI310
(dp6207
Vopacity
p6208
g6
sVstroke-linejoin
p6209
Vmiter
p6210
sVstroke-opacity
p6211
g6
sVfill-rule
p6212
Vevenodd
p6213
sVfill-opacity
p6214
g6
sVstroke-dashoffset
p6215
g14
sVstroke
p6216
Vnone
p6217
sVstroke-linecap
p6218
Vround
p6219
sVstroke-miterlimit
p6220
g20
sVstroke-dasharray
p6221
Vnone
p6222
sVstroke-width
p6223
V2.07500005
p6224
sVfill
p6225
V#9c009a
p6226
ssI311
(dp6227
Vopacity
p6228
g6
sVstroke-linejoin
p6229
Vmiter
p6230
sVstroke-opacity
p6231
g6
sVfill-rule
p6232
Vevenodd
p6233
sVfill-opacity
p6234
g6
sVstroke-dashoffset
p6235
g14
sVstroke
p6236
Vnone
p6237
sVstroke-linecap
p6238
Vround
p6239
sVstroke-miterlimit
p6240
g20
sVstroke-dasharray
p6241
Vnone
p6242
sVstroke-width
p6243
V2.07500005
p6244
sVfill
p6245
V#9c009a
p6246
ssI312
(dp6247
Vopacity
p6248
g6
sVstroke-linejoin
p6249
Vmiter
p6250
sVstroke-opacity
p6251
g6
sVfill-rule
p6252
Vevenodd
p6253
sVfill-opacity
p6254
g6
sVstroke-dashoffset
p6255
g14
sVstroke
p6256
Vnone
p6257
sVstroke-linecap
p6258
Vround
p6259
sVstroke-miterlimit
p6260
g20
sVstroke-dasharray
p6261
Vnone
p6262
sVstroke-width
p6263
V2.07500005
p6264
sVfill
p6265
V#9c009a
p6266
ssI313
(dp6267
Vopacity
p6268
g6
sVstroke-linejoin
p6269
Vmiter
p6270
sVstroke-opacity
p6271
g6
sVfill-rule
p6272
Vevenodd
p6273
sVfill-opacity
p6274
g6
sVstroke-dashoffset
p6275
g14
sVstroke
p6276
Vnone
p6277
sVstroke-linecap
p6278
Vround
p6279
sVstroke-miterlimit
p6280
g20
sVstroke-dasharray
p6281
Vnone
p6282
sVstroke-width
p6283
V2.07500005
p6284
sVfill
p6285
V#9c009a
p6286
ssI314
(dp6287
Vopacity
p6288
g6
sVstroke-linejoin
p6289
Vmiter
p6290
sVstroke-opacity
p6291
g6
sVfill-rule
p6292
Vevenodd
p6293
sVfill-opacity
p6294
g6
sVstroke-dashoffset
p6295
g14
sVstroke
p6296
Vnone
p6297
sVstroke-linecap
p6298
Vround
p6299
sVstroke-miterlimit
p6300
g20
sVstroke-dasharray
p6301
Vnone
p6302
sVstroke-width
p6303
V2.07500005
p6304
sVfill
p6305
V#490000
p6306
ssI315
(dp6307
Vopacity
p6308
g6
sVstroke-linejoin
p6309
Vmiter
p6310
sVstroke-opacity
p6311
g6
sVfill-rule
p6312
Vevenodd
p6313
sVfill-opacity
p6314
g6
sVstroke-dashoffset
p6315
g14
sVstroke
p6316
Vnone
p6317
sVstroke-linecap
p6318
Vround
p6319
sVstroke-miterlimit
p6320
g20
sVstroke-dasharray
p6321
Vnone
p6322
sVstroke-width
p6323
V2.07500005
p6324
sVfill
p6325
V#9c009a
p6326
ssI316
(dp6327
Vopacity
p6328
g6
sVstroke-linejoin
p6329
Vmiter
p6330
sVstroke-opacity
p6331
g6
sVfill-rule
p6332
Vevenodd
p6333
sVfill-opacity
p6334
g6
sVstroke-dashoffset
p6335
g14
sVstroke
p6336
Vnone
p6337
sVstroke-linecap
p6338
Vround
p6339
sVstroke-miterlimit
p6340
g20
sVstroke-dasharray
p6341
Vnone
p6342
sVstroke-width
p6343
V2.07500005
p6344
sVfill
p6345
V#9c009a
p6346
ssI317
(dp6347
Vopacity
p6348
g6
sVstroke-linejoin
p6349
Vmiter
p6350
sVstroke-opacity
p6351
g6
sVfill-rule
p6352
Vevenodd
p6353
sVfill-opacity
p6354
g6
sVstroke-dashoffset
p6355
g14
sVstroke
p6356
Vnone
p6357
sVstroke-linecap
p6358
Vround
p6359
sVstroke-miterlimit
p6360
g20
sVstroke-dasharray
p6361
Vnone
p6362
sVstroke-width
p6363
V2.07500005
p6364
sVfill
p6365
V#9c009a
p6366
ssI318
(dp6367
Vopacity
p6368
g6
sVstroke-linejoin
p6369
Vmiter
p6370
sVstroke-opacity
p6371
g6
sVfill-rule
p6372
Vevenodd
p6373
sVfill-opacity
p6374
g6
sVstroke-dashoffset
p6375
g14
sVstroke
p6376
Vnone
p6377
sVstroke-linecap
p6378
Vround
p6379
sVstroke-miterlimit
p6380
g20
sVstroke-dasharray
p6381
Vnone
p6382
sVstroke-width
p6383
V2.07500005
p6384
sVfill
p6385
V#490000
p6386
ssI319
(dp6387
Vopacity
p6388
g6
sVstroke-linejoin
p6389
Vmiter
p6390
sVstroke-opacity
p6391
g6
sVfill-rule
p6392
Vevenodd
p6393
sVfill-opacity
p6394
g6
sVstroke-dashoffset
p6395
g14
sVstroke
p6396
Vnone
p6397
sVstroke-linecap
p6398
Vround
p6399
sVstroke-miterlimit
p6400
g20
sVstroke-dasharray
p6401
Vnone
p6402
sVstroke-width
p6403
V2.07500005
p6404
sVfill
p6405
V#490000
p6406
ssI320
(dp6407
Vopacity
p6408
g6
sVstroke-linejoin
p6409
Vmiter
p6410
sVstroke-opacity
p6411
g6
sVfill-rule
p6412
Vevenodd
p6413
sVfill-opacity
p6414
g6
sVstroke-dashoffset
p6415
g14
sVstroke
p6416
Vnone
p6417
sVstroke-linecap
p6418
Vround
p6419
sVstroke-miterlimit
p6420
g20
sVstroke-dasharray
p6421
Vnone
p6422
sVstroke-width
p6423
V2.07500005
p6424
sVfill
p6425
V#9c009a
p6426
ssI321
(dp6427
Vopacity
p6428
g6
sVstroke-linejoin
p6429
Vmiter
p6430
sVstroke-opacity
p6431
g6
sVfill-rule
p6432
Vevenodd
p6433
sVfill-opacity
p6434
g6
sVstroke-dashoffset
p6435
g14
sVstroke
p6436
Vnone
p6437
sVstroke-linecap
p6438
Vround
p6439
sVstroke-miterlimit
p6440
g20
sVstroke-dasharray
p6441
Vnone
p6442
sVstroke-width
p6443
V2.07500005
p6444
sVfill
p6445
V#9c009a
p6446
ssI322
(dp6447
Vopacity
p6448
g6
sVstroke-linejoin
p6449
Vmiter
p6450
sVstroke-opacity
p6451
g6
sVfill-rule
p6452
Vevenodd
p6453
sVfill-opacity
p6454
g6
sVstroke-dashoffset
p6455
g14
sVstroke
p6456
Vnone
p6457
sVstroke-linecap
p6458
Vround
p6459
sVstroke-miterlimit
p6460
g20
sVstroke-dasharray
p6461
Vnone
p6462
sVstroke-width
p6463
V2.07500005
p6464
sVfill
p6465
V#9c009a
p6466
ssI323
(dp6467
Vopacity
p6468
g6
sVstroke-linejoin
p6469
Vmiter
p6470
sVstroke-opacity
p6471
g6
sVfill-rule
p6472
Vevenodd
p6473
sVfill-opacity
p6474
g6
sVstroke-dashoffset
p6475
g14
sVstroke
p6476
Vnone
p6477
sVstroke-linecap
p6478
Vround
p6479
sVstroke-miterlimit
p6480
g20
sVstroke-dasharray
p6481
Vnone
p6482
sVstroke-width
p6483
V2.07500005
p6484
sVfill
p6485
V#9c009a
p6486
ssI324
(dp6487
Vopacity
p6488
g6
sVstroke-linejoin
p6489
Vmiter
p6490
sVstroke-opacity
p6491
g6
sVfill-rule
p6492
Vevenodd
p6493
sVfill-opacity
p6494
g6
sVstroke-dashoffset
p6495
g14
sVstroke
p6496
Vnone
p6497
sVstroke-linecap
p6498
Vround
p6499
sVstroke-miterlimit
p6500
g20
sVstroke-dasharray
p6501
Vnone
p6502
sVstroke-width
p6503
V2.07500005
p6504
sVfill
p6505
V#9c009a
p6506
ssI325
(dp6507
Vopacity
p6508
g6
sVstroke-linejoin
p6509
Vmiter
p6510
sVstroke-opacity
p6511
g6
sVfill-rule
p6512
Vevenodd
p6513
sVfill-opacity
p6514
g6
sVstroke-dashoffset
p6515
g14
sVstroke
p6516
Vnone
p6517
sVstroke-linecap
p6518
Vround
p6519
sVstroke-miterlimit
p6520
g20
sVstroke-dasharray
p6521
Vnone
p6522
sVstroke-width
p6523
V2.07500005
p6524
sVfill
p6525
V#490000
p6526
ssI326
(dp6527
Vopacity
p6528
g6
sVstroke-linejoin
p6529
Vmiter
p6530
sVstroke-opacity
p6531
g6
sVfill-rule
p6532
Vevenodd
p6533
sVfill-opacity
p6534
g6
sVstroke-dashoffset
p6535
g14
sVstroke
p6536
Vnone
p6537
sVstroke-linecap
p6538
Vround
p6539
sVstroke-miterlimit
p6540
g20
sVstroke-dasharray
p6541
Vnone
p6542
sVstroke-width
p6543
V2.07500005
p6544
sVfill
p6545
V#490000
p6546
ssI327
(dp6547
Vopacity
p6548
g6
sVstroke-linejoin
p6549
Vmiter
p6550
sVstroke-opacity
p6551
g6
sVfill-rule
p6552
Vevenodd
p6553
sVfill-opacity
p6554
g6
sVstroke-dashoffset
p6555
g14
sVstroke
p6556
Vnone
p6557
sVstroke-linecap
p6558
Vround
p6559
sVstroke-miterlimit
p6560
g20
sVstroke-dasharray
p6561
Vnone
p6562
sVstroke-width
p6563
V2.07500005
p6564
sVfill
p6565
V#490000
p6566
ssI328
(dp6567
Vopacity
p6568
g6
sVstroke-linejoin
p6569
Vmiter
p6570
sVstroke-opacity
p6571
g6
sVfill-rule
p6572
Vevenodd
p6573
sVfill-opacity
p6574
g6
sVstroke-dashoffset
p6575
g14
sVstroke
p6576
Vnone
p6577
sVstroke-linecap
p6578
Vround
p6579
sVstroke-miterlimit
p6580
g20
sVstroke-dasharray
p6581
Vnone
p6582
sVstroke-width
p6583
V2.07500005
p6584
sVfill
p6585
V#490000
p6586
ssI329
(dp6587
Vopacity
p6588
g6
sVstroke-linejoin
p6589
Vmiter
p6590
sVstroke-opacity
p6591
g6
sVfill-rule
p6592
Vevenodd
p6593
sVfill-opacity
p6594
g6
sVstroke-dashoffset
p6595
g14
sVstroke
p6596
Vnone
p6597
sVstroke-linecap
p6598
Vround
p6599
sVstroke-miterlimit
p6600
g20
sVstroke-dasharray
p6601
Vnone
p6602
sVstroke-width
p6603
V2.07500005
p6604
sVfill
p6605
V#490000
p6606
ssI330
(dp6607
Vopacity
p6608
g6
sVstroke-linejoin
p6609
Vmiter
p6610
sVstroke-opacity
p6611
g6
sVfill-rule
p6612
Vevenodd
p6613
sVfill-opacity
p6614
g6
sVstroke-dashoffset
p6615
g14
sVstroke
p6616
Vnone
p6617
sVstroke-linecap
p6618
Vround
p6619
sVstroke-miterlimit
p6620
g20
sVstroke-dasharray
p6621
Vnone
p6622
sVstroke-width
p6623
V2.07500005
p6624
sVfill
p6625
V#490000
p6626
ssI331
(dp6627
Vopacity
p6628
g6
sVstroke-linejoin
p6629
Vmiter
p6630
sVstroke-opacity
p6631
g6
sVfill-rule
p6632
Vevenodd
p6633
sVfill-opacity
p6634
g6
sVstroke-dashoffset
p6635
g14
sVstroke
p6636
Vnone
p6637
sVstroke-linecap
p6638
Vround
p6639
sVstroke-miterlimit
p6640
g20
sVstroke-dasharray
p6641
Vnone
p6642
sVstroke-width
p6643
V2.07500005
p6644
sVfill
p6645
V#490000
p6646
ssI332
(dp6647
Vopacity
p6648
g6
sVstroke-linejoin
p6649
Vmiter
p6650
sVstroke-opacity
p6651
g6
sVfill-rule
p6652
Vevenodd
p6653
sVfill-opacity
p6654
g6
sVstroke-dashoffset
p6655
g14
sVstroke
p6656
Vnone
p6657
sVstroke-linecap
p6658
Vround
p6659
sVstroke-miterlimit
p6660
g20
sVstroke-dasharray
p6661
Vnone
p6662
sVstroke-width
p6663
V2.07500005
p6664
sVfill
p6665
V#490000
p6666
ssI333
(dp6667
Vopacity
p6668
g6
sVstroke-linejoin
p6669
Vmiter
p6670
sVstroke-opacity
p6671
g6
sVfill-rule
p6672
Vevenodd
p6673
sVfill-opacity
p6674
g6
sVstroke-dashoffset
p6675
g14
sVstroke
p6676
Vnone
p6677
sVstroke-linecap
p6678
Vround
p6679
sVstroke-miterlimit
p6680
g20
sVstroke-dasharray
p6681
Vnone
p6682
sVstroke-width
p6683
V2.07500005
p6684
sVfill
p6685
V#9c009a
p6686
ssI334
(dp6687
Vopacity
p6688
g6
sVstroke-linejoin
p6689
Vmiter
p6690
sVstroke-opacity
p6691
g6
sVfill-rule
p6692
Vevenodd
p6693
sVfill-opacity
p6694
g6
sVstroke-dashoffset
p6695
g14
sVstroke
p6696
Vnone
p6697
sVstroke-linecap
p6698
Vround
p6699
sVstroke-miterlimit
p6700
g20
sVstroke-dasharray
p6701
Vnone
p6702
sVstroke-width
p6703
V2.07500005
p6704
sVfill
p6705
V#9c009a
p6706
ssI335
(dp6707
Vopacity
p6708
g6
sVstroke-linejoin
p6709
Vmiter
p6710
sVstroke-opacity
p6711
g6
sVfill-rule
p6712
Vevenodd
p6713
sVfill-opacity
p6714
g6
sVstroke-dashoffset
p6715
g14
sVstroke
p6716
Vnone
p6717
sVstroke-linecap
p6718
Vround
p6719
sVstroke-miterlimit
p6720
g20
sVstroke-dasharray
p6721
Vnone
p6722
sVstroke-width
p6723
V2.07500005
p6724
sVfill
p6725
V#9c009a
p6726
ssI336
(dp6727
Vopacity
p6728
g6
sVstroke-linejoin
p6729
Vmiter
p6730
sVstroke-opacity
p6731
g6
sVfill-rule
p6732
Vevenodd
p6733
sVfill-opacity
p6734
g6
sVstroke-dashoffset
p6735
g14
sVstroke
p6736
Vnone
p6737
sVstroke-linecap
p6738
Vround
p6739
sVstroke-miterlimit
p6740
g20
sVstroke-dasharray
p6741
Vnone
p6742
sVstroke-width
p6743
V2.07500005
p6744
sVfill
p6745
V#9c009a
p6746
ssI337
(dp6747
Vopacity
p6748
g6
sVstroke-linejoin
p6749
Vmiter
p6750
sVstroke-opacity
p6751
g6
sVfill-rule
p6752
Vevenodd
p6753
sVfill-opacity
p6754
g6
sVstroke-dashoffset
p6755
g14
sVstroke
p6756
Vnone
p6757
sVstroke-linecap
p6758
Vround
p6759
sVstroke-miterlimit
p6760
g20
sVstroke-dasharray
p6761
Vnone
p6762
sVstroke-width
p6763
V2.07500005
p6764
sVfill
p6765
V#9c009a
p6766
ssI338
(dp6767
Vopacity
p6768
g6
sVstroke-linejoin
p6769
Vmiter
p6770
sVstroke-opacity
p6771
g6
sVfill-rule
p6772
Vevenodd
p6773
sVfill-opacity
p6774
g6
sVstroke-dashoffset
p6775
g14
sVstroke
p6776
Vnone
p6777
sVstroke-linecap
p6778
Vround
p6779
sVstroke-miterlimit
p6780
g20
sVstroke-dasharray
p6781
Vnone
p6782
sVstroke-width
p6783
V2.07500005
p6784
sVfill
p6785
V#9c009a
p6786
ssI339
(dp6787
Vopacity
p6788
g6
sVstroke-linejoin
p6789
Vmiter
p6790
sVstroke-opacity
p6791
g6
sVfill-rule
p6792
Vevenodd
p6793
sVfill-opacity
p6794
g6
sVstroke-dashoffset
p6795
g14
sVstroke
p6796
Vnone
p6797
sVstroke-linecap
p6798
Vround
p6799
sVstroke-miterlimit
p6800
g20
sVstroke-dasharray
p6801
Vnone
p6802
sVstroke-width
p6803
V2.07500005
p6804
sVfill
p6805
V#9c009a
p6806
ssI340
(dp6807
Vopacity
p6808
g6
sVstroke-linejoin
p6809
Vmiter
p6810
sVstroke-opacity
p6811
g6
sVfill-rule
p6812
Vevenodd
p6813
sVfill-opacity
p6814
g6
sVstroke-dashoffset
p6815
g14
sVstroke
p6816
Vnone
p6817
sVstroke-linecap
p6818
Vround
p6819
sVstroke-miterlimit
p6820
g20
sVstroke-dasharray
p6821
Vnone
p6822
sVstroke-width
p6823
V2.07500005
p6824
sVfill
p6825
V#9c009a
p6826
ssI341
(dp6827
Vopacity
p6828
g6
sVstroke-linejoin
p6829
Vmiter
p6830
sVstroke-opacity
p6831
g6
sVfill-rule
p6832
Vevenodd
p6833
sVfill-opacity
p6834
g6
sVstroke-dashoffset
p6835
g14
sVstroke
p6836
Vnone
p6837
sVstroke-linecap
p6838
Vround
p6839
sVstroke-miterlimit
p6840
g20
sVstroke-dasharray
p6841
Vnone
p6842
sVstroke-width
p6843
V2.07500005
p6844
sVfill
p6845
V#9c009a
p6846
ssI342
(dp6847
Vopacity
p6848
g6
sVstroke-linejoin
p6849
Vmiter
p6850
sVstroke-opacity
p6851
g6
sVfill-rule
p6852
Vevenodd
p6853
sVfill-opacity
p6854
g6
sVstroke-dashoffset
p6855
g14
sVstroke
p6856
Vnone
p6857
sVstroke-linecap
p6858
Vround
p6859
sVstroke-miterlimit
p6860
g20
sVstroke-dasharray
p6861
Vnone
p6862
sVstroke-width
p6863
V2.07500005
p6864
sVfill
p6865
V#9c009a
p6866
ssI343
(dp6867
Vopacity
p6868
g6
sVstroke-linejoin
p6869
Vmiter
p6870
sVstroke-opacity
p6871
g6
sVfill-rule
p6872
Vevenodd
p6873
sVfill-opacity
p6874
g6
sVstroke-dashoffset
p6875
g14
sVstroke
p6876
Vnone
p6877
sVstroke-linecap
p6878
Vround
p6879
sVstroke-miterlimit
p6880
g20
sVstroke-dasharray
p6881
Vnone
p6882
sVstroke-width
p6883
V2.07500005
p6884
sVfill
p6885
V#9c009a
p6886
ssI344
(dp6887
Vopacity
p6888
g6
sVstroke-linejoin
p6889
Vmiter
p6890
sVstroke-opacity
p6891
g6
sVfill-rule
p6892
Vevenodd
p6893
sVfill-opacity
p6894
g6
sVstroke-dashoffset
p6895
g14
sVstroke
p6896
Vnone
p6897
sVstroke-linecap
p6898
Vround
p6899
sVstroke-miterlimit
p6900
g20
sVstroke-dasharray
p6901
Vnone
p6902
sVstroke-width
p6903
V2.07500005
p6904
sVfill
p6905
V#9c009a
p6906
ssI345
(dp6907
Vopacity
p6908
g6
sVstroke-linejoin
p6909
Vmiter
p6910
sVstroke-opacity
p6911
g6
sVfill-rule
p6912
Vevenodd
p6913
sVfill-opacity
p6914
g6
sVstroke-dashoffset
p6915
g14
sVstroke
p6916
Vnone
p6917
sVstroke-linecap
p6918
Vround
p6919
sVstroke-miterlimit
p6920
g20
sVstroke-dasharray
p6921
Vnone
p6922
sVstroke-width
p6923
V2.07500005
p6924
sVfill
p6925
V#9c009a
p6926
ssI346
(dp6927
Vopacity
p6928
g6
sVstroke-linejoin
p6929
Vmiter
p6930
sVstroke-opacity
p6931
g6
sVfill-rule
p6932
Vevenodd
p6933
sVfill-opacity
p6934
g6
sVstroke-dashoffset
p6935
g14
sVstroke
p6936
Vnone
p6937
sVstroke-linecap
p6938
Vround
p6939
sVstroke-miterlimit
p6940
g20
sVstroke-dasharray
p6941
Vnone
p6942
sVstroke-width
p6943
V2.07500005
p6944
sVfill
p6945
V#9c009a
p6946
ssI347
(dp6947
Vopacity
p6948
g6
sVstroke-linejoin
p6949
Vmiter
p6950
sVstroke-opacity
p6951
g6
sVfill-rule
p6952
Vevenodd
p6953
sVfill-opacity
p6954
g6
sVstroke-dashoffset
p6955
g14
sVstroke
p6956
Vnone
p6957
sVstroke-linecap
p6958
Vround
p6959
sVstroke-miterlimit
p6960
g20
sVstroke-dasharray
p6961
Vnone
p6962
sVstroke-width
p6963
V2.07500005
p6964
sVfill
p6965
V#9c009a
p6966
ssI348
(dp6967
Vopacity
p6968
g6
sVstroke-linejoin
p6969
Vmiter
p6970
sVstroke-opacity
p6971
g6
sVfill-rule
p6972
Vevenodd
p6973
sVfill-opacity
p6974
g6
sVstroke-dashoffset
p6975
g14
sVstroke
p6976
Vnone
p6977
sVstroke-linecap
p6978
Vround
p6979
sVstroke-miterlimit
p6980
g20
sVstroke-dasharray
p6981
Vnone
p6982
sVstroke-width
p6983
V2.07500005
p6984
sVfill
p6985
V#9c009a
p6986
ssI349
(dp6987
Vopacity
p6988
g6
sVstroke-linejoin
p6989
Vmiter
p6990
sVstroke-opacity
p6991
g6
sVfill-rule
p6992
Vevenodd
p6993
sVfill-opacity
p6994
g6
sVstroke-dashoffset
p6995
g14
sVstroke
p6996
Vnone
p6997
sVstroke-linecap
p6998
Vround
p6999
sVstroke-miterlimit
p7000
g20
sVstroke-dasharray
p7001
Vnone
p7002
sVstroke-width
p7003
V2.07500005
p7004
sVfill
p7005
V#9c009a
p7006
ssI350
(dp7007
Vopacity
p7008
g6
sVstroke-linejoin
p7009
Vmiter
p7010
sVstroke-opacity
p7011
g6
sVfill-rule
p7012
Vevenodd
p7013
sVfill-opacity
p7014
g6
sVstroke-dashoffset
p7015
g14
sVstroke
p7016
Vnone
p7017
sVstroke-linecap
p7018
Vround
p7019
sVstroke-miterlimit
p7020
g20
sVstroke-dasharray
p7021
Vnone
p7022
sVstroke-width
p7023
V2.07500005
p7024
sVfill
p7025
V#9c009a
p7026
ssI351
(dp7027
Vopacity
p7028
g6
sVstroke-linejoin
p7029
Vmiter
p7030
sVstroke-opacity
p7031
g6
sVfill-rule
p7032
Vevenodd
p7033
sVfill-opacity
p7034
g6
sVstroke-dashoffset
p7035
g14
sVstroke
p7036
Vnone
p7037
sVstroke-linecap
p7038
Vround
p7039
sVstroke-miterlimit
p7040
g20
sVstroke-dasharray
p7041
Vnone
p7042
sVstroke-width
p7043
V2.07500005
p7044
sVfill
p7045
V#9c009a
p7046
ssI352
(dp7047
Vopacity
p7048
g6
sVstroke-linejoin
p7049
Vmiter
p7050
sVstroke-opacity
p7051
g6
sVfill-rule
p7052
Vevenodd
p7053
sVfill-opacity
p7054
g6
sVstroke-dashoffset
p7055
g14
sVstroke
p7056
Vnone
p7057
sVstroke-linecap
p7058
Vround
p7059
sVstroke-miterlimit
p7060
g20
sVstroke-dasharray
p7061
Vnone
p7062
sVstroke-width
p7063
V2.07500005
p7064
sVfill
p7065
V#9c009a
p7066
ssI353
(dp7067
Vopacity
p7068
g6
sVstroke-linejoin
p7069
Vmiter
p7070
sVstroke-opacity
p7071
g6
sVfill-rule
p7072
Vevenodd
p7073
sVfill-opacity
p7074
g6
sVstroke-dashoffset
p7075
g14
sVstroke
p7076
Vnone
p7077
sVstroke-linecap
p7078
Vround
p7079
sVstroke-miterlimit
p7080
g20
sVstroke-dasharray
p7081
Vnone
p7082
sVstroke-width
p7083
V2.07500005
p7084
sVfill
p7085
V#9c009a
p7086
ssI354
(dp7087
Vopacity
p7088
g6
sVstroke-linejoin
p7089
Vmiter
p7090
sVstroke-opacity
p7091
g6
sVfill-rule
p7092
Vevenodd
p7093
sVfill-opacity
p7094
g6
sVstroke-dashoffset
p7095
g14
sVstroke
p7096
Vnone
p7097
sVstroke-linecap
p7098
Vround
p7099
sVstroke-miterlimit
p7100
g20
sVstroke-dasharray
p7101
Vnone
p7102
sVstroke-width
p7103
V2.07500005
p7104
sVfill
p7105
V#9c009a
p7106
ssI355
(dp7107
Vopacity
p7108
g6
sVstroke-linejoin
p7109
Vmiter
p7110
sVstroke-opacity
p7111
g6
sVfill-rule
p7112
Vevenodd
p7113
sVfill-opacity
p7114
g6
sVstroke-dashoffset
p7115
g14
sVstroke
p7116
Vnone
p7117
sVstroke-linecap
p7118
Vround
p7119
sVstroke-miterlimit
p7120
g20
sVstroke-dasharray
p7121
Vnone
p7122
sVstroke-width
p7123
V2.07500005
p7124
sVfill
p7125
V#9c009a
p7126
ssI356
(dp7127
Vopacity
p7128
g6
sVstroke-linejoin
p7129
Vmiter
p7130
sVstroke-opacity
p7131
g6
sVfill-rule
p7132
Vevenodd
p7133
sVfill-opacity
p7134
g6
sVstroke-dashoffset
p7135
g14
sVstroke
p7136
Vnone
p7137
sVstroke-linecap
p7138
Vround
p7139
sVstroke-miterlimit
p7140
g20
sVstroke-dasharray
p7141
Vnone
p7142
sVstroke-width
p7143
V2.07500005
p7144
sVfill
p7145
V#9c009a
p7146
ssI357
(dp7147
Vopacity
p7148
g6
sVstroke-linejoin
p7149
Vmiter
p7150
sVstroke-opacity
p7151
g6
sVfill-rule
p7152
Vevenodd
p7153
sVfill-opacity
p7154
g6
sVstroke-dashoffset
p7155
g14
sVstroke
p7156
Vnone
p7157
sVstroke-linecap
p7158
Vround
p7159
sVstroke-miterlimit
p7160
g20
sVstroke-dasharray
p7161
Vnone
p7162
sVstroke-width
p7163
V2.07500005
p7164
sVfill
p7165
V#9c009a
p7166
ssI358
(dp7167
Vopacity
p7168
g6
sVstroke-linejoin
p7169
Vmiter
p7170
sVstroke-opacity
p7171
g6
sVfill-rule
p7172
Vevenodd
p7173
sVfill-opacity
p7174
g6
sVstroke-dashoffset
p7175
g14
sVstroke
p7176
Vnone
p7177
sVstroke-linecap
p7178
Vround
p7179
sVstroke-miterlimit
p7180
g20
sVstroke-dasharray
p7181
Vnone
p7182
sVstroke-width
p7183
V2.07500005
p7184
sVfill
p7185
V#9c009a
p7186
ssI359
(dp7187
Vopacity
p7188
g6
sVstroke-linejoin
p7189
Vmiter
p7190
sVstroke-opacity
p7191
g6
sVfill-rule
p7192
Vevenodd
p7193
sVfill-opacity
p7194
g6
sVstroke-dashoffset
p7195
g14
sVstroke
p7196
Vnone
p7197
sVstroke-linecap
p7198
Vround
p7199
sVstroke-miterlimit
p7200
g20
sVstroke-dasharray
p7201
Vnone
p7202
sVstroke-width
p7203
V2.07500005
p7204
sVfill
p7205
V#9c009a
p7206
ssI360
(dp7207
Vopacity
p7208
g6
sVstroke-linejoin
p7209
Vmiter
p7210
sVstroke-opacity
p7211
g6
sVfill-rule
p7212
Vevenodd
p7213
sVfill-opacity
p7214
g6
sVstroke-dashoffset
p7215
g14
sVstroke
p7216
Vnone
p7217
sVstroke-linecap
p7218
Vround
p7219
sVstroke-miterlimit
p7220
g20
sVstroke-dasharray
p7221
Vnone
p7222
sVstroke-width
p7223
V2.07500005
p7224
sVfill
p7225
V#9c009a
p7226
ssI361
(dp7227
Vopacity
p7228
g6
sVstroke-linejoin
p7229
Vmiter
p7230
sVstroke-opacity
p7231
g6
sVfill-rule
p7232
Vevenodd
p7233
sVfill-opacity
p7234
g6
sVstroke-dashoffset
p7235
g14
sVstroke
p7236
Vnone
p7237
sVstroke-linecap
p7238
Vround
p7239
sVstroke-miterlimit
p7240
g20
sVstroke-dasharray
p7241
Vnone
p7242
sVstroke-width
p7243
V2.07500005
p7244
sVfill
p7245
V#9c009a
p7246
ssI362
(dp7247
Vopacity
p7248
g6
sVstroke-linejoin
p7249
Vmiter
p7250
sVstroke-opacity
p7251
g6
sVfill-rule
p7252
Vevenodd
p7253
sVfill-opacity
p7254
g6
sVstroke-dashoffset
p7255
g14
sVstroke
p7256
Vnone
p7257
sVstroke-linecap
p7258
Vround
p7259
sVstroke-miterlimit
p7260
g20
sVstroke-dasharray
p7261
Vnone
p7262
sVstroke-width
p7263
V2.07500005
p7264
sVfill
p7265
V#9c009a
p7266
ssI363
(dp7267
Vopacity
p7268
g6
sVstroke-linejoin
p7269
Vmiter
p7270
sVstroke-opacity
p7271
g6
sVfill-rule
p7272
Vevenodd
p7273
sVfill-opacity
p7274
g6
sVstroke-dashoffset
p7275
g14
sVstroke
p7276
Vnone
p7277
sVstroke-linecap
p7278
Vround
p7279
sVstroke-miterlimit
p7280
g20
sVstroke-dasharray
p7281
Vnone
p7282
sVstroke-width
p7283
V2.07500005
p7284
sVfill
p7285
V#9c009a
p7286
ssI364
(dp7287
Vopacity
p7288
g6
sVstroke-linejoin
p7289
Vmiter
p7290
sVstroke-opacity
p7291
g6
sVfill-rule
p7292
Vevenodd
p7293
sVfill-opacity
p7294
g6
sVstroke-dashoffset
p7295
g14
sVstroke
p7296
Vnone
p7297
sVstroke-linecap
p7298
Vround
p7299
sVstroke-miterlimit
p7300
g20
sVstroke-dasharray
p7301
Vnone
p7302
sVstroke-width
p7303
V2.07500005
p7304
sVfill
p7305
V#9c009a
p7306
ssI365
(dp7307
Vopacity
p7308
g6
sVstroke-linejoin
p7309
Vmiter
p7310
sVstroke-opacity
p7311
g6
sVfill-rule
p7312
Vevenodd
p7313
sVfill-opacity
p7314
g6
sVstroke-dashoffset
p7315
g14
sVstroke
p7316
Vnone
p7317
sVstroke-linecap
p7318
Vround
p7319
sVstroke-miterlimit
p7320
g20
sVstroke-dasharray
p7321
Vnone
p7322
sVstroke-width
p7323
V2.07500005
p7324
sVfill
p7325
V#9c009a
p7326
ssI366
(dp7327
Vopacity
p7328
g6
sVstroke-linejoin
p7329
Vmiter
p7330
sVstroke-opacity
p7331
g6
sVfill-rule
p7332
Vevenodd
p7333
sVfill-opacity
p7334
g6
sVstroke-dashoffset
p7335
g14
sVstroke
p7336
Vnone
p7337
sVstroke-linecap
p7338
Vround
p7339
sVstroke-miterlimit
p7340
g20
sVstroke-dasharray
p7341
Vnone
p7342
sVstroke-width
p7343
V2.07500005
p7344
sVfill
p7345
V#9c009a
p7346
ssI367
(dp7347
Vopacity
p7348
g6
sVstroke-linejoin
p7349
Vmiter
p7350
sVstroke-opacity
p7351
g6
sVfill-rule
p7352
Vevenodd
p7353
sVfill-opacity
p7354
g6
sVstroke-dashoffset
p7355
g14
sVstroke
p7356
Vnone
p7357
sVstroke-linecap
p7358
Vround
p7359
sVstroke-miterlimit
p7360
g20
sVstroke-dasharray
p7361
Vnone
p7362
sVstroke-width
p7363
V2.07500005
p7364
sVdisplay
p7365
Vinline
p7366
sVfill
p7367
V#00ffff
p7368
ssI368
(dp7369
Vopacity
p7370
g6
sVstroke-linejoin
p7371
Vmiter
p7372
sVstroke-opacity
p7373
g6
sVfill-rule
p7374
Vevenodd
p7375
sVfill-opacity
p7376
g6
sVstroke-dashoffset
p7377
g14
sVstroke
p7378
Vnone
p7379
sVstroke-linecap
p7380
Vround
p7381
sVstroke-miterlimit
p7382
g20
sVstroke-dasharray
p7383
Vnone
p7384
sVstroke-width
p7385
V1.5692327
p7386
sVdisplay
p7387
Vinline
p7388
sVfill
p7389
V#e8e8e8
p7390
ssI369
(dp7391
Vopacity
p7392
g6
sVstroke-linejoin
p7393
Vmiter
p7394
sVstroke-opacity
p7395
g6
sVfill-rule
p7396
Vevenodd
p7397
sVfill-opacity
p7398
g6
sVstroke-dashoffset
p7399
g14
sVstroke
p7400
Vnone
p7401
sVstroke-linecap
p7402
Vround
p7403
sVstroke-miterlimit
p7404
g20
sVstroke-dasharray
p7405
Vnone
p7406
sVstroke-width
p7407
V1.68110347
p7408
sVdisplay
p7409
Vinline
p7410
sVfill
p7411
V#e8e8e8
p7412
ssI370
(dp7413
Vopacity
p7414
g6
sVstroke-linejoin
p7415
Vmiter
p7416
sVstroke-opacity
p7417
g6
sVfill-rule
p7418
Vevenodd
p7419
sVfill-opacity
p7420
g6
sVstroke-dashoffset
p7421
g14
sVstroke
p7422
Vnone
p7423
sVstroke-linecap
p7424
Vround
p7425
sVstroke-miterlimit
p7426
g20
sVstroke-dasharray
p7427
Vnone
p7428
sVstroke-width
p7429
V1.50981998
p7430
sVdisplay
p7431
Vinline
p7432
sVfill
p7433
V#e8e8e8
p7434
ssI371
(dp7435
Vopacity
p7436
g6
sVstroke-linejoin
p7437
Vmiter
p7438
sVstroke-opacity
p7439
g6
sVfill-rule
p7440
Vevenodd
p7441
sVfill-opacity
p7442
g6
sVstroke-dashoffset
p7443
g14
sVstroke
p7444
Vnone
p7445
sVstroke-linecap
p7446
Vround
p7447
sVstroke-miterlimit
p7448
g20
sVstroke-dasharray
p7449
Vnone
p7450
sVstroke-width
p7451
V1.28080285
p7452
sVdisplay
p7453
Vinline
p7454
sVfill
p7455
V#ff6500
p7456
ssI372
(dp7457
Vopacity
p7458
g6
sVstroke-linejoin
p7459
Vmiter
p7460
sVstroke-opacity
p7461
g6
sVfill-rule
p7462
Vevenodd
p7463
sVfill-opacity
p7464
g6
sVstroke-dashoffset
p7465
g14
sVstroke
p7466
Vnone
p7467
sVstroke-linecap
p7468
Vround
p7469
sVstroke-miterlimit
p7470
g20
sVstroke-dasharray
p7471
Vnone
p7472
sVstroke-width
p7473
V1.4118197
p7474
sVdisplay
p7475
Vinline
p7476
sVfill
p7477
V#ff6500
p7478
ssI373
(dp7479
Vopacity
p7480
g6
sVstroke-linejoin
p7481
Vmiter
p7482
sVstroke-opacity
p7483
g6
sVfill-rule
p7484
Vevenodd
p7485
sVfill-opacity
p7486
g6
sVstroke-dashoffset
p7487
g14
sVstroke
p7488
Vnone
p7489
sVstroke-linecap
p7490
Vround
p7491
sVstroke-miterlimit
p7492
g20
sVstroke-dasharray
p7493
Vnone
p7494
sVstroke-width
p7495
V1.09020329
p7496
sVdisplay
p7497
Vinline
p7498
sVfill
p7499
V#ff6500
p7500
ssI374
(dp7501
Vopacity
p7502
g6
sVstroke-linejoin
p7503
Vmiter
p7504
sVstroke-opacity
p7505
g6
sVfill-rule
p7506
Vevenodd
p7507
sVfill-opacity
p7508
g6
sVstroke-dashoffset
p7509
g14
sVstroke
p7510
Vnone
p7511
sVstroke-linecap
p7512
Vround
p7513
sVstroke-miterlimit
p7514
g20
sVstroke-dasharray
p7515
Vnone
p7516
sVstroke-width
p7517
V1.28174341
p7518
sVdisplay
p7519
Vinline
p7520
sVfill
p7521
V#ff6500
p7522
ssI375
(dp7523
Vopacity
p7524
g6
sVstroke-linejoin
p7525
Vmiter
p7526
sVstroke-opacity
p7527
g6
sVfill-rule
p7528
Vevenodd
p7529
sVfill-opacity
p7530
g6
sVstroke-dashoffset
p7531
g14
sVstroke
p7532
Vnone
p7533
sVstroke-linecap
p7534
Vround
p7535
sVstroke-miterlimit
p7536
g20
sVstroke-dasharray
p7537
Vnone
p7538
sVstroke-width
p7539
V1.29604697
p7540
sVdisplay
p7541
Vinline
p7542
sVfill
p7543
V#ff6500
p7544
ssI376
(dp7545
Vopacity
p7546
g6
sVstroke-linejoin
p7547
Vmiter
p7548
sVstroke-opacity
p7549
g6
sVfill-rule
p7550
Vevenodd
p7551
sVfill-opacity
p7552
g6
sVstroke-dashoffset
p7553
g14
sVstroke
p7554
Vnone
p7555
sVstroke-linecap
p7556
Vround
p7557
sVstroke-miterlimit
p7558
g20
sVstroke-dasharray
p7559
Vnone
p7560
sVstroke-width
p7561
V1.52781451
p7562
sVdisplay
p7563
Vinline
p7564
sVfill
p7565
V#ff6500
p7566
ssI377
(dp7567
Vopacity
p7568
g6
sVstroke-linejoin
p7569
Vmiter
p7570
sVstroke-opacity
p7571
g6
sVfill-rule
p7572
Vevenodd
p7573
sVfill-opacity
p7574
g6
sVstroke-dashoffset
p7575
g14
sVstroke
p7576
Vnone
p7577
sVstroke-linecap
p7578
Vround
p7579
sVstroke-miterlimit
p7580
g20
sVstroke-dasharray
p7581
Vnone
p7582
sVstroke-width
p7583
V1.3058573
p7584
sVdisplay
p7585
Vinline
p7586
sVfill
p7587
V#ff6500
p7588
ssI378
(dp7589
Vopacity
p7590
g6
sVstroke-linejoin
p7591
Vmiter
p7592
sVstroke-opacity
p7593
g6
sVfill-rule
p7594
Vevenodd
p7595
sVfill-opacity
p7596
g6
sVstroke-dashoffset
p7597
g14
sVstroke
p7598
Vnone
p7599
sVstroke-linecap
p7600
Vround
p7601
sVstroke-miterlimit
p7602
g20
sVstroke-dasharray
p7603
Vnone
p7604
sVstroke-width
p7605
V1.52781451
p7606
sVdisplay
p7607
Vinline
p7608
sVfill
p7609
V#e8e8e8
p7610
ssI379
(dp7611
Vopacity
p7612
g6
sVstroke-linejoin
p7613
Vmiter
p7614
sVstroke-opacity
p7615
g6
sVfill-rule
p7616
Vevenodd
p7617
sVfill-opacity
p7618
g6
sVstroke-dashoffset
p7619
g14
sVstroke
p7620
Vnone
p7621
sVstroke-linecap
p7622
Vround
p7623
sVstroke-miterlimit
p7624
g20
sVstroke-dasharray
p7625
Vnone
p7626
sVstroke-width
p7627
V1.52781451
p7628
sVdisplay
p7629
Vinline
p7630
sVfill
p7631
V#e8e8e8
p7632
ssI380
(dp7633
Vopacity
p7634
g6
sVstroke-linejoin
p7635
Vmiter
p7636
sVstroke-opacity
p7637
g6
sVfill-rule
p7638
Vevenodd
p7639
sVfill-opacity
p7640
g6
sVstroke-dashoffset
p7641
g14
sVstroke
p7642
Vnone
p7643
sVstroke-linecap
p7644
Vround
p7645
sVstroke-miterlimit
p7646
g20
sVstroke-dasharray
p7647
Vnone
p7648
sVstroke-width
p7649
V1.89839971
p7650
sVdisplay
p7651
Vinline
p7652
sVfill
p7653
V#e8e8e8
p7654
ssI381
(dp7655
Vopacity
p7656
g6
sVstroke-linejoin
p7657
Vmiter
p7658
sVstroke-opacity
p7659
g6
sVfill-rule
p7660
Vevenodd
p7661
sVfill-opacity
p7662
g6
sVstroke-dashoffset
p7663
g14
sVstroke
p7664
Vnone
p7665
sVstroke-linecap
p7666
Vround
p7667
sVstroke-miterlimit
p7668
g20
sVstroke-dasharray
p7669
Vnone
p7670
sVstroke-width
p7671
V2.25582075
p7672
sVdisplay
p7673
Vinline
p7674
sVfill
p7675
V#00ffff
p7676
sstp7677
Rp7678
(dp7679
S'description'
p7680
S"#type : <class 'celltissue.data.tissue_property.TissueProperty'>\n\n"
p7681
sb.