(dp0
S'show_imports'
p1
I1
sS'prj_name'
p2
S'mersim'
p3
sS'docformat'
p4
S'restructuredtext'
p5
sS'inheritance'
p6
S'listed'
p7
sS'help'
p8
NsS'modules'
p9
(S'/home/stymek/src/mersim/trunk/lib/python/const.py'
p10
S'/home/stymek/src/mersim/trunk/lib/python/walledTissue.py'
p11
S'/home/stymek/src/mersim/trunk/lib/python/povexport.py'
p12
S'/home/stymek/src/mersim/trunk/lib/python/convexhull.py'
p13
S'/home/stymek/src/mersim/trunk/lib/python/simulationRemoveCellStrategy.py'
p14
S'/home/stymek/src/mersim/trunk/lib/python/springTissueModel.py'
p15
tp16
sS'private'
p17
I1
sS'prj_url'
p18
NsS'introspect_or_parse'
p19
S'both'
p20
sS'frames'
p21
I1
sS'css'
p22
S'black'
p23
sS'target'
p24
S'html'
p25
s.