ccopy_reg
_reconstructor
p0
(ccelltissue.serial.io_property
IOAbstractProperty
p1
c__builtin__
dict
p2
(dp3
I0
(F-4.0249999999999995
F22.137499999999999
tp4
sI1
(F-5.7749999999999995
F13.387499999999998
tp5
sI2
(F-3.1499999999999999
F9.0124999999999993
tp6
sI3
(F3.8499999999999996
F7.2624999999999993
tp7
sI4
(F9.9749999999999996
F14.262499999999998
tp8
sI5
(F9.0999999999999996
F17.762499999999999
tp9
sI6
(F2.0999999999999996
F23.012499999999999
tp10
sI7
(F15.225
F23.887499999999999
tp11
sI8
(F25.724999999999998
F11.637499999999999
tp12
sI9
(F18.724999999999998
F8.1374999999999993
tp13
sI10
(F2.9749999999999996
F30.012499999999999
tp14
sI11
(F-11.024999999999999
F27.387499999999999
tp15
sI12
(F-15.399999999999999
F23.887499999999999
tp16
sI13
(F-14.524999999999999
F15.137499999999998
tp17
sI14
(F-18.024999999999999
F11.637499999999998
tp18
sI15
(F-16.274999999999999
F2.8874999999999997
tp19
sI16
(F-9.2749999999999986
F1.1375
tp20
sI17
(F-6.6499999999999995
F-4.1124999999999998
tp21
sI18
(F2.9749999999999996
F-4.9874999999999998
tp22
sI19
(F6.4749999999999988
F1.1375
tp23
sI20
(F16.099999999999998
F1.1375
tp24
sI21
(F5.5999999999999988
F-10.237499999999999
tp25
sI22
(F14.35
F-11.987499999999999
tp26
sI23
(F19.599999999999998
F-4.9874999999999998
tp27
sI24
(F-22.399999999999995
F-1.4874999999999998
tp28
sI25
(F-22.399999999999995
F-6.7374999999999998
tp29
sI26
(F-18.024999999999999
F-11.112499999999999
tp30
sI27
(F-10.149999999999999
F-10.237499999999999
tp31
sI28
(F1.2249999999999999
F-17.237499999999997
tp32
sI29
(F-4.8999999999999995
F-17.237499999999997
tp33
sI30
(F-20.649999999999999
F-20.737499999999997
tp34
sI31
(F-11.024999999999999
F-25.987499999999997
tp35
sI32
(F5.5999999999999996
F-25.987499999999997
tp36
sI33
(F17.849999999999998
F-18.112499999999997
tp37
sI34
(F27.474999999999998
F-5.8624999999999998
tp38
sI35
(F-29.399999999999999
F3.7624999999999997
tp39
sI36
(F-25.899999999999999
F13.387499999999999
tp40
sI37
(F-28.524999999999999
F-9.3624999999999989
tp41
stp42
Rp43
(dp44
S'description'
p45
S''
p46
sb.