((dp0
S'E'
p1
F5.6300000000000003e-006
sS'D'
p2
F2.5
sS'decay'
p3
F0.01
sS'P'
p4
F9.9999999999999995e-007
sS'wall thickness'
p5
F1.0
sS'fixed'
p6
(lp7
(I2
I0
tp8
a(I2
I1
tp9
a(I16
I0
tp10
a(I16
I1
tp11
a(I17
I0
tp12
a(I17
I1
tp13
a(I18
I0
tp14
a(I18
I1
tp15
a(I19
I0
tp16
a(I19
I1
tp17
a(I3
I0
tp18
a(I3
I1
tp19
a(I2
I0
tp20
a(I2
I1
tp21
asS'nu'
p22
F0.25
sS'tissue thickness'
p23
F1.0
sI3
tp24
.