ccopy_reg
_reconstructor
p0
(ccelltissue.serial.io_property
IOTissueProperty
p1
c__builtin__
dict
p2
(dp3
I0
g0
(ccelltissue.geometry.point
Point
p4
c__builtin__
object
p5
Ntp6
Rp7
(dp8
S'_pid'
p9
I0
sbsI1
g0
(g4
g5
Ntp10
Rp11
(dp12
g9
I1
sbsI2
g0
(g4
g5
Ntp13
Rp14
(dp15
g9
I2
sbsI3
g0
(g4
g5
Ntp16
Rp17
(dp18
g9
I3
sbsI4
g0
(g4
g5
Ntp19
Rp20
(dp21
g9
I4
sbsI5
g0
(g4
g5
Ntp22
Rp23
(dp24
g9
I5
sbsI6
g0
(g4
g5
Ntp25
Rp26
(dp27
g9
I6
sbsI7
g0
(g4
g5
Ntp28
Rp29
(dp30
g9
I7
sbsI8
g0
(g4
g5
Ntp31
Rp32
(dp33
g9
I8
sbsI9
g0
(g4
g5
Ntp34
Rp35
(dp36
g9
I9
sbsI10
g0
(g4
g5
Ntp37
Rp38
(dp39
g9
I10
sbsI11
g0
(g4
g5
Ntp40
Rp41
(dp42
g9
I11
sbsI12
g0
(g4
g5
Ntp43
Rp44
(dp45
g9
I12
sbsI13
g0
(g4
g5
Ntp46
Rp47
(dp48
g9
I13
sbsI14
g0
(g4
g5
Ntp49
Rp50
(dp51
g9
I14
sbsI15
g0
(g4
g5
Ntp52
Rp53
(dp54
g9
I15
sbsI16
g0
(g4
g5
Ntp55
Rp56
(dp57
g9
I16
sbsI17
g0
(g4
g5
Ntp58
Rp59
(dp60
g9
I17
sbsI18
g0
(g4
g5
Ntp61
Rp62
(dp63
g9
I18
sbsI19
g0
(g4
g5
Ntp64
Rp65
(dp66
g9
I19
sbsI20
g0
(g4
g5
Ntp67
Rp68
(dp69
g9
I20
sbsI21
g0
(g4
g5
Ntp70
Rp71
(dp72
g9
I21
sbsI22
g0
(g4
g5
Ntp73
Rp74
(dp75
g9
I22
sbsI23
g0
(g4
g5
Ntp76
Rp77
(dp78
g9
I23
sbsI24
g0
(g4
g5
Ntp79
Rp80
(dp81
g9
I24
sbsI25
g0
(g4
g5
Ntp82
Rp83
(dp84
g9
I25
sbsI26
g0
(g4
g5
Ntp85
Rp86
(dp87
g9
I26
sbsI27
g0
(g4
g5
Ntp88
Rp89
(dp90
g9
I27
sbsI28
g0
(g4
g5
Ntp91
Rp92
(dp93
g9
I28
sbsI29
g0
(g4
g5
Ntp94
Rp95
(dp96
g9
I29
sbsI30
g0
(g4
g5
Ntp97
Rp98
(dp99
g9
I30
sbsI31
g0
(g4
g5
Ntp100
Rp101
(dp102
g9
I31
sbsI32
g0
(g4
g5
Ntp103
Rp104
(dp105
g9
I32
sbsI33
g0
(g4
g5
Ntp106
Rp107
(dp108
g9
I33
sbsI34
g0
(g4
g5
Ntp109
Rp110
(dp111
g9
I34
sbsI35
g0
(g4
g5
Ntp112
Rp113
(dp114
g9
I35
sbsI36
g0
(g4
g5
Ntp115
Rp116
(dp117
g9
I36
sbsI37
g0
(g4
g5
Ntp118
Rp119
(dp120
g9
I37
sbsI38
g0
(g4
g5
Ntp121
Rp122
(dp123
g9
I38
sbsI39
g0
(g4
g5
Ntp124
Rp125
(dp126
g9
I39
sbsI40
g0
(g4
g5
Ntp127
Rp128
(dp129
g9
I40
sbsI41
g0
(g4
g5
Ntp130
Rp131
(dp132
g9
I41
sbsI42
g0
(g4
g5
Ntp133
Rp134
(dp135
g9
I42
sbsI43
g0
(g4
g5
Ntp136
Rp137
(dp138
g9
I43
sbsI44
g0
(g4
g5
Ntp139
Rp140
(dp141
g9
I44
sbsI45
g0
(g4
g5
Ntp142
Rp143
(dp144
g9
I45
sbsI46
g0
(g4
g5
Ntp145
Rp146
(dp147
g9
I46
sbsI47
g0
(g4
g5
Ntp148
Rp149
(dp150
g9
I47
sbsI48
g0
(g4
g5
Ntp151
Rp152
(dp153
g9
I48
sbsI49
g0
(g4
g5
Ntp154
Rp155
(dp156
g9
I49
sbsI50
g0
(g4
g5
Ntp157
Rp158
(dp159
g9
I50
sbsI51
g0
(g4
g5
Ntp160
Rp161
(dp162
g9
I51
sbsI52
g0
(g4
g5
Ntp163
Rp164
(dp165
g9
I52
sbsI53
g0
(g4
g5
Ntp166
Rp167
(dp168
g9
I53
sbsI54
g0
(g4
g5
Ntp169
Rp170
(dp171
g9
I54
sbsI55
g0
(g4
g5
Ntp172
Rp173
(dp174
g9
I55
sbsI56
g0
(g4
g5
Ntp175
Rp176
(dp177
g9
I56
sbsI57
g0
(g4
g5
Ntp178
Rp179
(dp180
g9
I57
sbsI58
g0
(g4
g5
Ntp181
Rp182
(dp183
g9
I58
sbsI59
g0
(g4
g5
Ntp184
Rp185
(dp186
g9
I59
sbsI60
g0
(g4
g5
Ntp187
Rp188
(dp189
g9
I60
sbsI61
g0
(g4
g5
Ntp190
Rp191
(dp192
g9
I61
sbsI62
g0
(g4
g5
Ntp193
Rp194
(dp195
g9
I62
sbsI63
g0
(g4
g5
Ntp196
Rp197
(dp198
g9
I63
sbsI64
g0
(g4
g5
Ntp199
Rp200
(dp201
g9
I64
sbsI65
g0
(g4
g5
Ntp202
Rp203
(dp204
g9
I65
sbsI66
g0
(g4
g5
Ntp205
Rp206
(dp207
g9
I66
sbsI67
g0
(g4
g5
Ntp208
Rp209
(dp210
g9
I67
sbsI68
g0
(g4
g5
Ntp211
Rp212
(dp213
g9
I68
sbsI69
g0
(g4
g5
Ntp214
Rp215
(dp216
g9
I69
sbsI70
g0
(g4
g5
Ntp217
Rp218
(dp219
g9
I70
sbsI71
g0
(g4
g5
Ntp220
Rp221
(dp222
g9
I71
sbsI72
g0
(g4
g5
Ntp223
Rp224
(dp225
g9
I72
sbsI73
g0
(g4
g5
Ntp226
Rp227
(dp228
g9
I73
sbsI74
g0
(g4
g5
Ntp229
Rp230
(dp231
g9
I74
sbsI75
g0
(g4
g5
Ntp232
Rp233
(dp234
g9
I75
sbsI76
g0
(g4
g5
Ntp235
Rp236
(dp237
g9
I76
sbsI77
g0
(g4
g5
Ntp238
Rp239
(dp240
g9
I77
sbstp241
Rp242
(dp243
S'scale'
p244
I2
sS'description'
p245
S'describe geometry of wisps at a given scale of a tissue'
p246
sb.