ccopy_reg
_reconstructor
p0
(ccelltissue.serial.io_property
IOAbstractProperty
p1
c__builtin__
dict
p2
(dp3
I0
(F-52.800000000000004
F7.5900000000000007
tp4
sI1
(F-48.840000000000003
F13.530000000000001
tp5
sI2
(F-42.899999999999999
F8.5800000000000001
tp6
sI3
(F-45.870000000000005
F2.6400000000000001
tp7
sI4
(F-39.93
F22.440000000000001
tp8
sI5
(F-35.969999999999999
F15.51
tp9
sI6
(F-38.940000000000005
F9.5700000000000003
tp10
sI7
(F-25.080000000000002
F27.390000000000001
tp11
sI8
(F-24.09
F18.48
tp12
sI9
(F-26.070000000000004
F16.5
tp13
sI10
(F-32.009999999999998
F15.51
tp14
sI11
(F-16.170000000000002
F28.380000000000003
tp15
sI12
(F-15.180000000000001
F19.470000000000002
tp16
sI13
(F-17.16
F17.490000000000002
tp17
sI14
(F-6.2700000000000005
F28.380000000000003
tp18
sI15
(F-5.2800000000000002
F19.470000000000002
tp19
sI16
(F-9.2400000000000002
F16.5
tp20
sI17
(F3.6300000000000003
F29.370000000000001
tp21
sI18
(F3.6300000000000003
F22.440000000000001
tp22
sI19
(F-1.3200000000000001
F18.48
tp23
sI20
(F16.5
F29.370000000000001
tp24
sI21
(F14.520000000000001
F21.449999999999999
tp25
sI22
(F7.5900000000000007
F19.470000000000002
tp26
sI23
(F28.380000000000003
F25.41
tp27
sI24
(F24.420000000000002
F17.490000000000002
tp28
sI25
(F18.48
F18.48
tp29
sI26
(F36.300000000000004
F20.460000000000001
tp30
sI27
(F31.350000000000005
F14.520000000000001
tp31
sI28
(F28.380000000000006
F14.520000000000001
tp32
sI29
(F41.25
F15.510000000000002
tp33
sI30
(F34.32
F10.56
tp34
sI31
(F45.210000000000001
F11.550000000000001
tp35
sI32
(F40.260000000000005
F4.6200000000000001
tp36
sI33
(F34.32
F5.6100000000000003
tp37
sI34
(F-44.880000000000003
F-1.3200000000000001
tp38
sI35
(F-37.950000000000003
F-5.2800000000000002
tp39
sI36
(F-34.980000000000004
F1.6500000000000001
tp40
sI37
(F-30.030000000000001
F5.6100000000000003
tp41
sI38
(F-32.009999999999998
F0.66000000000000003
tp42
sI39
(F-24.09
F8.5800000000000001
tp43
sI40
(F-25.080000000000002
F5.6100000000000003
tp44
sI41
(F-15.180000000000001
F6.6000000000000005
tp45
sI42
(F-17.16
F3.6300000000000003
tp46
sI43
(F-9.2400000000000002
F7.5900000000000007
tp47
sI44
(F-11.220000000000001
F5.6100000000000003
tp48
sI45
(F-0.33000000000000002
F4.6200000000000001
tp49
sI46
(F-2.3100000000000001
F2.6400000000000001
tp50
sI47
(F7.5900000000000007
F7.5900000000000007
tp51
sI48
(F4.6200000000000001
F2.6400000000000001
tp52
sI49
(F17.490000000000002
F11.550000000000002
tp53
sI50
(F15.51
F7.5900000000000007
tp54
sI51
(F26.400000000000002
F10.56
tp55
sI52
(F24.420000000000002
F3.6300000000000003
tp56
sI53
(F19.470000000000002
F1.6500000000000001
tp57
sI54
(F29.370000000000001
F-3.3000000000000003
tp58
sI55
(F-46.859999999999992
F-6.2700000000000005
tp59
sI56
(F-53.789999999999999
F-0.33000000000000002
tp60
sI57
(F-45.870000000000005
F-8.25
tp61
sI58
(F-37.950000000000003
F-8.25
tp62
sI59
(F-29.040000000000003
F-8.25
tp63
sI60
(F-23.100000000000005
F-5.2800000000000002
tp64
sI61
(F-23.100000000000001
F-8.25
tp65
sI62
(F-17.16
F-2.3100000000000001
tp66
sI63
(F-14.190000000000001
F-8.25
tp67
sI64
(F-8.25
F-8.25
tp68
sI65
(F-2.3100000000000001
F-4.29
tp69
sI66
(F-4.29
F-8.25
tp70
sI67
(F5.6100000000000003
F-5.2800000000000002
tp71
sI68
(F8.5800000000000001
F-8.25
tp72
sI69
(F15.510000000000002
F-8.25
tp73
sI70
(F28.380000000000003
F-8.25
tp74
sI71
(F40.260000000000005
F-1.3200000000000001
tp75
sI72
(F34.32
F-8.25
tp76
sI73
(F50.160000000000004
F5.6100000000000003
tp77
sI74
(F43.229999999999997
F-3.3000000000000003
tp78
sI75
(F43.230000000000004
F-8.25
tp79
sI76
(F-53.789999999999999
F-8.25
tp80
sI77
(F50.160000000000004
F-8.25
tp81
stp82
Rp83
(dp84
S'description'
p85
S''
p86
sb.