ccopy_reg
_reconstructor
p0
(ccelltissue.serial.io_property
IOTissueProperty
p1
c__builtin__
dict
p2
(dp3
I0
(lp4
I14
aI17
asI1
(lp5
I65
aI67
asI2
(lp6
I48
aI67
asI3
(lp7
I17
aI20
asI4
(lp8
I18
aI19
asI5
(lp9
I23
aI26
asI6
(lp10
I40
aI60
asI7
(lp11
I74
aI75
asI8
(lp12
I35
aI58
asI9
(lp13
I42
aI62
asI10
(lp14
I52
aI53
asI11
(lp15
I51
aI52
asI12
(lp16
I45
aI48
asI13
(lp17
I59
aI61
asI14
(lp18
I27
aI28
asI15
(lp19
I75
aI77
asI16
(lp20
I0
aI1
asI17
(lp21
I2
aI6
asI18
(lp22
I25
aI49
asI19
(lp23
I31
aI73
asI20
(lp24
I29
aI30
asI21
(lp25
I14
aI15
asI22
(lp26
I55
aI56
asI23
(lp27
I9
aI39
asI24
(lp28
I17
aI18
asI25
(lp29
I60
aI62
asI26
(lp30
I61
aI63
asI27
(lp31
I57
aI76
asI28
(lp32
I67
aI68
asI29
(lp33
I39
aI42
asI30
(lp34
I34
aI35
asI31
(lp35
I7
aI8
asI32
(lp36
I64
aI66
asI33
(lp37
I49
aI51
asI34
(lp38
I69
aI70
asI35
(lp39
I8
aI9
asI36
(lp40
I46
aI65
asI37
(lp41
I73
aI77
asI38
(lp42
I32
aI71
asI39
(lp43
I43
aI46
asI40
(lp44
I15
aI19
asI41
(lp45
I13
aI41
asI42
(lp46
I65
aI66
asI43
(lp47
I3
aI34
asI44
(lp48
I58
aI59
asI45
(lp49
I12
aI13
asI46
(lp50
I26
aI29
asI47
(lp51
I68
aI69
asI48
(lp52
I71
aI74
asI49
(lp53
I49
aI50
asI50
(lp54
I52
aI54
asI51
(lp55
I24
aI28
asI52
(lp56
I37
aI38
asI53
(lp57
I47
aI50
asI54
(lp58
I73
aI74
asI55
(lp59
I56
aI76
asI56
(lp60
I23
aI24
asI57
(lp61
I37
aI40
asI58
(lp62
I5
aI10
asI59
(lp63
I70
aI72
asI60
(lp64
I15
aI16
asI61
(lp65
I57
aI58
asI62
(lp66
I66
aI68
asI63
(lp67
I41
aI44
asI64
(lp68
I10
aI37
asI65
(lp69
I18
aI22
asI66
(lp70
I8
aI13
asI67
(lp71
I0
aI56
asI68
(lp72
I53
aI69
asI69
(lp73
I11
aI14
asI70
(lp74
I7
aI11
asI71
(lp75
I32
aI33
asI72
(lp76
I6
aI36
asI73
(lp77
I30
aI33
asI74
(lp78
I39
aI40
asI75
(lp79
I44
aI64
asI76
(lp80
I72
aI75
asI77
(lp81
I1
aI4
asI78
(lp82
I41
aI42
asI79
(lp83
I2
aI3
asI80
(lp84
I43
aI44
asI81
(lp85
I45
aI46
asI82
(lp86
I47
aI48
asI83
(lp87
I22
aI47
asI84
(lp88
I34
aI55
asI85
(lp89
I27
aI30
asI86
(lp90
I71
aI72
asI87
(lp91
I4
aI7
asI88
(lp92
I5
aI6
asI89
(lp93
I12
aI16
asI90
(lp94
I0
aI3
asI91
(lp95
I31
aI32
asI92
(lp96
I50
aI53
asI93
(lp97
I1
aI2
asI94
(lp98
I24
aI25
asI95
(lp99
I16
aI43
asI96
(lp100
I36
aI38
asI97
(lp101
I63
aI64
asI98
(lp102
I29
aI31
asI99
(lp103
I4
aI5
asI100
(lp104
I38
aI59
asI101
(lp105
I55
aI57
asI102
(lp106
I60
aI61
asI103
(lp107
I54
aI70
asI104
(lp108
I9
aI10
asI105
(lp109
I62
aI63
asI106
(lp110
I33
aI54
asI107
(lp111
I11
aI12
asI108
(lp112
I35
aI36
asI109
(lp113
I21
aI25
asI110
(lp114
I20
aI23
asI111
(lp115
I26
aI27
asI112
(lp116
I21
aI22
asI113
(lp117
I20
aI21
asI114
(lp118
I19
aI45
asI115
(lp119
I28
aI51
astp120
Rp121
(dp122
S'scale'
p123
I1
sS'description'
p124
S''
p125
sb.