(lp1
(dp2
I1573
(lp3
I1482
aI1572
asa(dp4
I1482
(lp5
I1424
aI1425
aI1426
aI1427
aI1428
aI1429
aI1430
aI1431
aI1432
aI1433
aI1434
aI1435
aI1436
aI1437
aI1438
aI1439
aI1440
aI1441
aI1442
aI1443
aI1444
aI1445
aI1446
aI1447
aI1448
aI1449
aI1450
aI1451
aI1452
aI1453
aI1454
aI1455
aI1456
aI1457
aI1458
aI1459
aI1460
aI1461
aI1462
aI1463
aI1464
aI1465
aI1466
aI1467
aI1468
aI1469
aI1470
aI1471
aI1472
aI1473
aI1474
aI1475
aI1476
aI1477
aI1478
aI1479
aI1480
aI1481
asI1572
(lp6
I1483
aI1484
aI1485
aI1486
aI1487
aI1488
aI1489
aI1490
aI1491
aI1492
aI1493
aI1494
aI1495
aI1496
aI1497
aI1498
aI1499
aI1500
aI1501
aI1502
aI1503
aI1504
aI1505
aI1506
aI1507
aI1508
aI1509
aI1510
aI1511
aI1512
aI1513
aI1514
aI1515
aI1516
aI1517
aI1518
aI1519
aI1520
aI1521
aI1522
aI1523
aI1524
aI1525
aI1526
aI1527
aI1528
aI1529
aI1530
aI1531
aI1532
aI1533
aI1534
aI1535
aI1536
aI1537
aI1538
aI1539
aI1540
aI1541
aI1542
aI1543
aI1544
aI1545
aI1546
aI1547
aI1548
aI1549
aI1550
aI1551
aI1552
aI1553
aI1554
aI1555
aI1556
aI1557
aI1558
aI1559
aI1560
aI1561
aI1562
aI1563
aI1564
aI1565
aI1566
aI1567
aI1568
aI1569
aI1570
aI1571
asa(dp7
I1536
(lp8
I1059
aI1060
aI1061
aI1062
aI1063
aI1064
aI1065
aI1066
aI1067
aI1068
asI1537
(lp9
I1069
aI1070
aI1071
aI1072
aI1073
aI1074
aI1075
aI1076
asI1538
(lp10
I1077
aI1078
aI1079
aI1080
aI1081
aI1082
aI1083
aI1084
asI1539
(lp11
I1085
aI1086
aI1087
aI1088
aI1089
aI1090
aI1091
aI1092
aI1093
aI1094
aI1095
aI1096
aI1097
aI1098
aI1099
aI1100
aI1101
aI1102
asI1540
(lp12
I1103
aI1104
aI1105
aI1106
aI1107
aI1108
aI1109
aI1110
aI1111
aI1112
aI1113
aI1114
aI1115
aI1116
aI1117
aI1118
aI1119
asI1541
(lp13
I1120
aI1121
aI1122
aI1123
aI1124
aI1125
aI1126
asI1542
(lp14
I1129
aI1130
aI1131
aI1132
aI1133
aI1134
aI1135
aI1136
aI1137
aI1138
asI1543
(lp15
I1139
aI1140
aI1141
aI1142
aI1143
aI1144
aI1145
asI1544
(lp16
I1146
aI1147
aI1148
aI1149
aI1150
aI1151
aI1152
aI1153
aI1154
asI1545
(lp17
I1156
aI1157
aI1158
aI1159
aI1160
aI1161
asI1546
(lp18
I1162
aI1163
asI1547
(lp19
I1166
aI1167
aI1168
aI1169
aI1170
aI1171
asI1548
(lp20
I1172
aI1173
aI1174
aI1175
aI1176
aI1177
aI1178
aI1179
aI1180
aI1181
asI1549
(lp21
I1182
aI1183
aI1184
aI1185
aI1186
aI1187
aI1188
asI1550
(lp22
I1189
aI1190
aI1191
aI1192
aI1193
aI1194
aI1195
aI1196
aI1197
aI1198
asI1551
(lp23
I1199
aI1200
aI1201
aI1202
aI1203
aI1204
aI1205
aI1206
aI1207
aI1208
aI1209
asI1552
(lp24
I1210
aI1211
aI1212
aI1213
aI1214
aI1215
aI1216
aI1217
aI1218
aI1219
aI1220
aI1221
asI1553
(lp25
I1222
aI1223
aI1224
aI1225
aI1226
aI1227
aI1228
aI1229
aI1230
aI1231
asI1554
(lp26
I1232
aI1233
aI1234
aI1235
aI1236
aI1237
aI1238
aI1239
aI1240
aI1241
asI1555
(lp27
I1242
aI1243
aI1244
aI1245
aI1246
aI1247
aI1248
aI1249
aI1250
aI1251
aI1252
aI1253
aI1254
asI1556
(lp28
I1255
aI1256
aI1257
aI1258
aI1259
aI1260
aI1261
aI1262
aI1263
aI1264
asI1557
(lp29
I1265
aI1266
aI1267
aI1268
aI1269
aI1270
aI1271
aI1272
aI1273
aI1274
aI1275
asI1558
(lp30
I1276
asI1559
(lp31
I1277
aI1278
aI1279
aI1280
aI1281
aI1282
aI1283
aI1284
aI1285
asI1560
(lp32
I1286
aI1287
aI1288
aI1289
aI1290
aI1291
aI1292
aI1293
aI1294
asI1561
(lp33
I1295
aI1296
aI1297
aI1298
aI1299
aI1300
aI1301
aI1302
aI1303
asI1562
(lp34
I1304
aI1305
aI1306
aI1307
aI1308
aI1309
aI1310
aI1311
aI1312
aI1313
aI1314
aI1315
aI1316
aI1317
aI1318
aI1319
aI1320
aI1321
asI1563
(lp35
I1322
aI1323
aI1324
aI1325
aI1326
aI1327
asI1564
(lp36
I1328
aI1329
aI1330
aI1331
aI1332
aI1333
aI1334
asI1565
(lp37
I1336
aI1337
aI1338
aI1339
aI1340
aI1341
aI1342
aI1343
aI1344
aI1345
aI1346
asI1566
(lp38
I1349
aI1350
aI1351
aI1352
aI1353
aI1354
aI1355
aI1356
aI1357
aI1358
aI1359
aI1360
aI1361
aI1362
aI1363
aI1364
aI1365
asI1567
(lp39
I1366
aI1367
aI1368
aI1369
aI1370
aI1371
aI1372
aI1373
asI1568
(lp40
I1375
aI1376
aI1377
aI1378
aI1379
aI1380
aI1381
aI1382
aI1383
aI1384
aI1385
aI1386
aI1387
aI1388
aI1389
aI1390
asI1569
(lp41
I1391
aI1392
aI1393
aI1394
aI1395
aI1396
aI1397
aI1398
aI1399
aI1400
aI1401
aI1402
aI1403
aI1404
aI1405
aI1406
aI1407
aI1408
asI1570
(lp42
I1412
aI1413
aI1414
asI1571
(lp43
I1415
aI1416
aI1417
aI1418
aI1419
aI1420
aI1421
aI1422
aI1423
asI1424
(lp44
I2
aI3
aI4
aI5
asI1425
(lp45
I7
aI8
aI9
aI10
asI1426
(lp46
I13
aI14
aI15
aI16
aI17
aI18
asI1427
(lp47
I19
asI1428
(lp48
I20
aI21
aI22
aI23
asI1429
(lp49
I24
aI25
aI26
aI27
aI28
aI29
aI30
aI31
aI32
aI33
asI1430
(lp50
I34
aI35
aI36
aI37
aI38
aI39
aI40
aI41
aI42
aI43
aI44
aI45
asI1431
(lp51
I46
aI47
aI48
aI49
aI50
aI51
aI52
asI1432
(lp52
I53
aI54
aI55
aI56
aI57
aI58
aI59
aI60
aI61
aI62
asI1433
(lp53
I63
aI64
aI65
aI66
aI67
aI68
aI69
aI70
asI1434
(lp54
I71
aI72
aI73
aI74
aI75
aI76
aI77
aI78
aI79
aI80
asI1435
(lp55
I81
aI82
aI83
aI84
aI85
aI86
aI87
aI88
aI89
aI90
aI91
aI92
aI93
aI94
aI95
aI96
aI97
aI98
asI1436
(lp56
I99
aI100
aI101
aI102
aI103
aI104
aI105
aI106
aI107
asI1437
(lp57
I108
aI109
aI110
aI111
aI112
aI113
aI114
aI115
aI116
asI1438
(lp58
I118
aI119
aI120
aI121
aI122
aI123
aI124
aI125
aI126
aI127
aI128
asI1439
(lp59
I129
aI130
aI131
aI132
aI133
aI134
aI135
aI136
aI137
aI138
aI139
aI140
aI141
asI1440
(lp60
I142
aI143
aI144
aI145
aI146
aI147
aI148
aI149
aI150
aI151
aI152
asI1441
(lp61
I153
aI154
aI155
aI156
aI157
aI158
aI159
aI160
aI161
aI162
aI163
aI164
aI165
asI1442
(lp62
I166
aI167
aI168
aI169
aI170
aI171
aI172
aI173
aI174
aI175
aI176
asI1443
(lp63
I178
aI179
aI180
aI181
aI182
aI183
aI184
aI185
aI186
aI187
aI188
aI189
aI190
aI191
aI192
aI193
aI194
aI195
asI1444
(lp64
I196
aI197
aI198
aI199
aI200
aI201
aI202
aI203
aI204
aI205
aI206
aI207
aI208
aI209
aI210
aI211
aI212
aI213
aI214
aI215
asI1445
(lp65
I216
aI217
aI218
aI219
aI220
asI1446
(lp66
I221
aI222
aI223
aI224
aI225
aI226
aI227
aI228
aI229
aI230
aI231
aI232
asI1447
(lp67
I233
aI234
aI235
aI236
aI237
aI238
aI239
aI240
asI1448
(lp68
I242
aI243
aI244
aI245
aI246
aI247
aI248
aI249
aI250
aI251
aI252
aI253
aI254
asI1449
(lp69
I255
aI256
aI257
aI258
aI259
aI260
aI261
asI1450
(lp70
I263
aI264
aI265
aI266
aI267
aI268
aI269
aI270
aI271
aI272
aI273
asI1451
(lp71
I276
aI277
aI278
aI279
aI280
aI281
aI282
aI283
aI284
asI1452
(lp72
I286
aI287
aI288
aI289
aI290
aI291
aI292
aI293
aI294
aI295
aI296
aI297
aI298
asI1453
(lp73
I299
aI300
aI301
aI302
aI303
aI304
aI305
aI306
aI307
aI308
asI1454
(lp74
I309
aI310
aI311
aI312
aI313
aI314
aI315
aI316
aI317
aI318
aI319
aI320
aI321
aI322
asI1455
(lp75
I323
aI324
aI325
aI326
aI327
aI328
aI329
aI330
aI331
asI1456
(lp76
I332
aI333
aI334
aI335
aI336
aI337
asI1457
(lp77
I338
asI1458
(lp78
I341
aI342
aI343
aI344
aI345
aI346
aI347
aI348
aI349
aI350
aI351
asI1459
(lp79
I352
aI353
aI354
aI355
aI356
aI357
aI358
aI359
aI360
aI361
aI362
aI363
asI1460
(lp80
I364
aI365
aI366
aI367
aI368
aI369
aI370
asI1461
(lp81
I372
aI373
aI374
aI375
aI376
aI377
aI378
aI379
aI380
aI381
aI382
aI383
aI384
aI385
aI386
aI387
aI388
aI389
aI390
asI1462
(lp82
I392
aI393
aI394
aI395
aI396
aI397
aI398
aI399
aI400
asI1463
(lp83
I401
aI402
aI403
aI404
aI405
aI406
aI407
asI1464
(lp84
I408
aI409
aI410
aI411
aI412
aI413
aI414
aI415
asI1465
(lp85
I416
aI417
aI418
aI419
aI420
aI421
aI422
aI423
aI424
aI425
aI426
aI427
aI428
aI429
aI430
aI431
aI432
asI1466
(lp86
I433
aI434
aI435
aI436
aI437
asI1467
(lp87
I440
aI441
aI442
aI443
aI444
aI445
aI446
asI1468
(lp88
I447
aI448
aI449
aI450
aI451
aI452
aI453
asI1469
(lp89
I455
aI456
aI457
aI458
aI459
aI460
aI461
asI1470
(lp90
I462
aI463
aI464
aI465
aI466
aI467
aI468
aI469
aI470
aI471
asI1471
(lp91
I472
aI473
aI474
aI475
aI476
aI477
asI1472
(lp92
I478
aI479
aI480
aI481
aI482
aI483
aI484
asI1473
(lp93
I485
aI486
aI487
aI488
aI489
aI490
aI491
aI492
aI493
aI494
aI495
asI1474
(lp94
I496
aI497
aI498
aI499
aI500
aI501
aI502
aI503
aI504
aI505
asI1475
(lp95
I506
aI507
aI508
aI509
aI510
aI511
aI512
aI513
aI514
aI515
asI1476
(lp96
I519
asI1477
(lp97
I522
aI523
aI524
aI525
aI526
aI527
aI528
asI1478
(lp98
I529
aI530
aI531
aI532
aI533
asI1479
(lp99
I538
aI539
aI540
aI541
aI542
aI543
aI544
aI545
aI546
asI1480
(lp100
I551
aI552
asI1481
(lp101
I553
aI554
aI555
aI556
aI557
aI558
aI559
aI560
aI561
aI562
aI563
asI1483
(lp102
I566
aI567
aI568
aI569
aI570
aI571
aI572
asI1484
(lp103
I573
aI574
aI575
aI576
aI577
aI578
aI579
aI580
asI1485
(lp104
I581
aI582
aI583
asI1486
(lp105
I584
aI585
aI586
aI587
aI588
aI589
aI590
aI591
aI592
aI593
aI594
aI595
asI1487
(lp106
I596
aI597
aI598
aI599
aI600
aI601
aI602
aI603
aI604
aI605
aI606
asI1488
(lp107
I607
aI608
aI609
aI610
aI611
aI612
aI613
aI614
aI615
aI616
aI617
aI618
aI619
aI620
asI1489
(lp108
I621
aI622
aI623
aI624
aI625
asI1490
(lp109
I626
aI627
aI628
aI629
aI630
aI631
aI632
aI633
aI634
aI635
aI636
asI1491
(lp110
I637
aI638
aI639
aI640
aI641
aI642
aI643
aI644
aI645
aI646
aI647
aI648
asI1492
(lp111
I649
asI1493
(lp112
I650
aI651
aI652
aI653
aI654
asI1494
(lp113
I655
aI656
aI657
aI658
aI659
aI660
aI661
aI662
aI663
aI664
aI665
aI666
aI667
aI668
asI1495
(lp114
I669
aI670
aI671
aI672
aI673
aI674
aI675
aI676
aI677
aI678
aI679
aI680
aI681
aI682
aI683
asI1496
(lp115
I684
aI685
asI1497
(lp116
I686
aI687
aI688
aI689
aI690
asI1498
(lp117
I691
aI692
aI693
aI694
asI1499
(lp118
I695
aI696
aI697
aI698
aI699
aI700
aI701
aI702
aI703
aI704
asI1500
(lp119
I705
aI706
aI707
aI708
aI709
aI710
aI711
aI712
aI713
aI714
aI715
aI716
asI1501
(lp120
I718
aI719
aI720
aI721
aI722
aI723
aI724
aI725
aI726
aI727
aI728
aI729
aI730
asI1502
(lp121
I732
aI733
aI734
aI735
aI736
aI737
aI738
aI739
aI740
asI1503
(lp122
I742
aI743
aI744
aI745
aI746
aI747
asI1504
(lp123
I749
aI750
aI751
aI752
aI753
aI754
asI1505
(lp124
I756
aI757
aI758
aI759
aI760
aI761
aI762
aI763
aI764
aI765
aI766
asI1506
(lp125
I767
aI768
aI769
aI770
aI771
aI772
aI773
aI774
aI775
aI776
asI1507
(lp126
I777
aI778
aI779
aI780
aI781
aI782
asI1508
(lp127
I783
aI784
aI785
aI786
aI787
aI788
aI789
aI790
asI1509
(lp128
I792
aI793
aI794
aI795
aI796
aI797
aI798
aI799
aI800
aI801
aI802
aI803
aI804
aI805
aI806
aI807
aI808
asI1510
(lp129
I809
aI810
aI811
aI812
aI813
aI814
aI815
aI816
aI817
aI818
aI819
aI820
aI821
aI822
aI823
aI824
aI825
aI826
aI827
aI828
asI1511
(lp130
I829
aI830
aI831
aI832
aI833
aI834
aI835
aI836
asI1512
(lp131
I837
aI838
aI839
aI840
aI841
aI842
aI843
asI1513
(lp132
I845
aI846
aI847
aI848
aI849
aI850
aI851
aI852
aI853
aI854
aI855
asI1514
(lp133
I856
aI857
aI858
aI859
asI1515
(lp134
I860
aI861
aI862
aI863
aI864
aI865
aI866
aI867
aI868
aI869
asI1516
(lp135
I870
aI871
aI872
aI873
aI874
aI875
aI876
asI1517
(lp136
I878
aI879
aI880
aI881
aI882
aI883
aI884
aI885
aI886
aI887
asI1518
(lp137
I888
aI889
aI890
aI891
aI892
aI893
aI894
aI895
aI896
asI1519
(lp138
I898
aI899
aI900
aI901
aI902
aI903
aI904
asI1520
(lp139
I905
aI906
aI907
aI908
aI909
aI910
aI911
asI1521
(lp140
I912
asI1522
(lp141
I913
aI914
aI915
aI916
aI917
aI918
asI1523
(lp142
I919
aI920
aI921
aI922
aI923
aI924
aI925
aI926
aI927
aI928
aI929
aI930
asI1524
(lp143
I931
aI932
aI933
aI934
aI935
aI936
aI937
aI938
asI1525
(lp144
I939
aI940
aI941
aI942
aI943
aI944
aI945
aI946
aI947
aI948
aI949
aI950
aI951
aI952
asI1526
(lp145
I954
aI955
aI956
aI957
aI958
aI959
aI960
aI961
aI962
aI963
aI964
aI965
aI966
aI967
aI968
aI969
aI970
aI971
aI972
aI973
aI974
asI1527
(lp146
I975
aI976
aI977
aI978
aI979
aI980
aI981
aI982
aI983
aI984
asI1528
(lp147
I985
aI986
aI987
aI988
aI989
aI990
aI991
aI992
asI1529
(lp148
I993
aI994
aI995
aI996
aI997
aI998
aI999
aI1000
aI1001
aI1002
aI1003
aI1004
aI1005
aI1006
asI1530
(lp149
I1007
aI1008
aI1009
aI1010
aI1011
aI1012
aI1013
aI1014
aI1015
aI1016
aI1017
aI1018
asI1531
(lp150
I1019
aI1020
aI1021
aI1022
aI1023
aI1024
asI1532
(lp151
I1025
aI1026
aI1027
aI1028
aI1029
aI1030
aI1031
aI1032
aI1033
asI1533
(lp152
I1034
aI1035
aI1036
aI1037
aI1038
aI1039
aI1040
aI1041
aI1042
aI1043
asI1534
(lp153
I1045
aI1046
aI1047
aI1048
aI1049
aI1050
aI1051
aI1052
asI1535
(lp154
I1053
aI1054
aI1055
aI1056
aI1057
aI1058
asa.